BL51 BANKED LINKER/LOCATER V6.22                                                        09/19/2025  10:17:04  PAGE 1


BL51 BANKED LINKER/LOCATER V6.22, INVOKED BY:
D:\KEIL\C51\BIN\BL51.EXE main.obj, .\STCBSP_V3.6b.LIB TO test RAMSIZE (256)


MEMORY MODEL: SMALL


INPUT MODULES INCLUDED:
  main.obj (MAIN)
  .\STCBSP_V3.6b.LIB (ADC)
  .\STCBSP_V3.6b.LIB (BEEP)
  .\STCBSP_V3.6b.LIB (DISPLAYER)
  .\STCBSP_V3.6b.LIB (HALL)
  .\STCBSP_V3.6b.LIB (KEY)
  .\STCBSP_V3.6b.LIB (SYS)
  .\STCBSP_V3.6b.LIB (VIB)
  .\STCBSP_V3.6b.LIB (MUSIC)
  .\STCBSP_V3.6b.LIB (DS1302)
  .\STCBSP_V3.6b.LIB (UART2)
  D:\KEIL\C51\LIB\C51S.LIB (?C_STARTUP)
  D:\KEIL\C51\LIB\C51S.LIB (?C?COPY)
  D:\KEIL\C51\LIB\C51S.LIB (?C?CLDOPTR)
  D:\KEIL\C51\LIB\C51S.LIB (?C?CSTOPTR)
  D:\KEIL\C51\LIB\C51S.LIB (?C?IMUL)
  D:\KEIL\C51\LIB\C51S.LIB (?C?UIDIV)
  D:\KEIL\C51\LIB\C51S.LIB (?C?SIDIV)
  D:\KEIL\C51\LIB\C51S.LIB (?C?IILDX)
  D:\KEIL\C51\LIB\C51S.LIB (?C?ILDIX)
  D:\KEIL\C51\LIB\C51S.LIB (?C?ILDPTR)
  D:\KEIL\C51\LIB\C51S.LIB (?C?LMUL)
  D:\KEIL\C51\LIB\C51S.LIB (?C?ULDIV)
  D:\KEIL\C51\LIB\C51S.LIB (?C?SLDIV)
  D:\KEIL\C51\LIB\C51S.LIB (?C?ULSHR)
  D:\KEIL\C51\LIB\C51S.LIB (?C?SLSHR)
  D:\KEIL\C51\LIB\C51S.LIB (?C?LLDCODE)
  D:\KEIL\C51\LIB\C51S.LIB (?C?LSTXDATA)
  D:\KEIL\C51\LIB\C51S.LIB (?C?OFFXADD)
  D:\KEIL\C51\LIB\C51S.LIB (?C?ICALL)
  D:\KEIL\C51\LIB\C51S.LIB (?C_IBP)
  D:\KEIL\C51\LIB\C51S.LIB (?C_INIT)


LINK MAP OF MODULE:  test (MAIN)


            TYPE    BASE      LENGTH    RELOCATION   SEGMENT NAME
            -----------------------------------------------------

            * * * * * * *   D A T A   M E M O R Y   * * * * * * *
            REG     0000H     0008H     ABSOLUTE     "REG BANK 0"
            DATA    0008H     0012H     UNIT         _DATA_GROUP_
            DATA    001AH     0002H     UNIT         ?DT?GETULTRASONIC?SYS
            DATA    001CH     0001H     UNIT         ?DT?HALL
            DATA    001DH     0001H     UNIT         ?DT?UART2
            DATA    001EH     0001H     UNIT         ?C?LIB_DATA
                    001FH     0001H                  *** GAP ***
            BIT     0020H.0   0001H.7   UNIT         ?BI?SYS
            BIT     0021H.7   0000H.1   UNIT         ?BI?ADC
BL51 BANKED LINKER/LOCATER V6.22                                                      09/19/2025  10:17:04  PAGE 2


            BIT     0022H.0   0000H.1   UNIT         ?BI?MUSIC
                    0022H.1   0000H.7                *** GAP ***
            DATA    0023H     0036H     UNIT         ?DT?MAIN
            DATA    0059H     0011H     UNIT         ?DT?SYS
            DATA    006AH     0008H     UNIT         ?DT?_SEG7SETMODE?DISPLAYER
            DATA    0072H     0008H     UNIT         ?DT?_LEDSETMODE?DISPLAYER
            IDATA   007AH     0001H     UNIT         ?STACK

            * * * * * * *  X D A T A   M E M O R Y  * * * * * * *
            XDATA   0000H     006FH     UNIT         ?XD?SYS
            XDATA   006FH     0020H     UNIT         ?XD?ADC
            XDATA   008FH     001EH     UNIT         ?XD?DISPLAYER
            XDATA   00ADH     0016H     UNIT         ?XD?UART2
            XDATA   00C3H     0010H     UNIT         ?XD?MUSIC
            XDATA   00D3H     000BH     UNIT         ?XD?KEY
            XDATA   00DEH     0009H     UNIT         ?XD?DS1302
            XDATA   00E7H     0004H     UNIT         ?XD?HALL
            XDATA   00EBH     0002H     UNIT         ?XD?VIB

            * * * * * * *   C O D E   M E M O R Y   * * * * * * *
            CODE    0000H     0003H     ABSOLUTE     
                    0003H     0008H                  *** GAP ***
            CODE    000BH     0003H     ABSOLUTE     
                    000EH     001DH                  *** GAP ***
            CODE    002BH     0003H     ABSOLUTE     
                    002EH     000DH                  *** GAP ***
            CODE    003BH     0003H     ABSOLUTE     
                    003EH     0005H                  *** GAP ***
            CODE    0043H     0003H     ABSOLUTE     
                    0046H     07BAH                  *** GAP ***
            CODE    0800H     03ABH     UNIT         ?C?LIB_CODE
            CODE    0BABH     034FH     UNIT         ?PR?MYDISPLAY_CALLBACK?MAIN
            CODE    0EFAH     0302H     UNIT         ?PR?_?SYS_MUSIC_DRV?MUSIC
            CODE    11FCH     01DBH     UNIT         ?PR?UART2_ISR?UART2
            CODE    13D7H     01B3H     UNIT         ?PR?_?SYS_ADC_DRV?ADC
            CODE    158AH     017BH     UNIT         ?PR?_?SYS_DISPLAY_DRV?DISPLAYER
            CODE    1705H     0152H     UNIT         ?CO?MAIN
            CODE    1857H     014EH     UNIT         ?C_INITSEG
            CODE    19A5H     0127H     UNIT         ?PR?_?SYS_KEY_DRV?KEY
            CODE    1ACCH     0126H     UNIT         ?CO?MUSIC
            CODE    1BF2H     00FEH     UNIT         ?PR?DS1302INIT?DS1302
            CODE    1CF0H     00F1H     UNIT         ?PR?SYS_TASK_1MS?SYS
            CODE    1DE1H     00C7H     UNIT         ?PR?MAIN?MAIN
            CODE    1EA8H     00BBH     UNIT         ?PR?_UART2INIT?UART2
            CODE    1F63H     00B9H     UNIT         ?PR?MYLED_CALLBACK?MAIN
            CODE    201CH     00AAH     UNIT         ?PR?_PLAYTONE?MUSIC
            CODE    20C6H     00A8H     UNIT         ?PR?SYS_CCP_ISR?SYS
            CODE    216EH     00A5H     UNIT         ?PR?_?SYS_DS1302_DRV?DS1302
            CODE    2213H     0093H     UNIT         ?PR?SYS_TASK_10MS?SYS
            CODE    22A6H     008FH     UNIT         ?PR?_SEG7SETMODE?DISPLAYER
            CODE    2335H     008FH     UNIT         ?PR?_LEDSETMODE?DISPLAYER
            CODE    23C4H     008CH     UNIT         ?C_C51STARTUP
            CODE    2450H     008BH     UNIT         ?PR?SYS_TASK_IR?SYS
            CODE    24DBH     0087H     UNIT         ?PR?BEEP_CHECK?MAIN
            CODE    2562H     0081H     UNIT         ?PR?_SETMUSIC?MUSIC
            CODE    25E3H     007DH     UNIT         ?PR?_SETEVENTCALLBACK?SYS
            CODE    2660H     0078H     UNIT         ?PR?_SETBEEP?BEEP
BL51 BANKED LINKER/LOCATER V6.22                                                      09/19/2025  10:17:04  PAGE 3


            CODE    26D8H     0053H     UNIT         ?PR?GETULTRASONIC?SYS
            CODE    272BH     0052H     UNIT         ?PR?SYS_TIMER0_ISR?SYS
            CODE    277DH     0047H     UNIT         ?PR?MYKEY_CALLBACK?MAIN
            CODE    27C4H     0047H     UNIT         ?PR?SYS_TIMER0_INIT?SYS
            CODE    280BH     0046H     UNIT         ?PR?_GETADCNAVACT?ADC
            CODE    2851H     0044H     UNIT         ?C?LDIV
            CODE    2895H     0043H     UNIT         ?PR?_?SYS_HALL_DRV?HALL
            CODE    28D8H     0042H     UNIT         ?PR?MYHALL_CALLBACK?MAIN
            CODE    291AH     0040H     UNIT         ?PR?_GETKEYACT?KEY
            CODE    295AH     003FH     UNIT         ?PR?SYS_TASK_100MS?SYS
            CODE    2999H     003EH     UNIT         ?PR?MYSTC_OS?SYS
            CODE    29D7H     0034H     UNIT         ?PR?MYUART2_CALLBACK?MAIN
            CODE    2A0BH     0031H     UNIT         ?PR?_ADCINIT?ADC
            CODE    2A3CH     0031H     UNIT         ?PR?_SETUART2RXD?UART2
            CODE    2A6DH     0031H     UNIT         ?PR?_UART2PRINT?UART2
            CODE    2A9EH     002EH     UNIT         ?PR?_DS1302READ?DS1302
            CODE    2ACCH     002BH     UNIT         ?PR?SYS_TASK_1S?SYS
            CODE    2AF7H     0029H     UNIT         ?PR?_NVM_WRITE?DS1302
            CODE    2B20H     0028H     UNIT         ?PR?_?SYS_BEEP_DRV?BEEP
            CODE    2B48H     0028H     UNIT         ?PR?_SETPLAYERMODE?MUSIC
            CODE    2B70H     0020H     UNIT         ?PR?BEEPINIT?BEEP
            CODE    2B90H     0020H     UNIT         ?PR?_SEG7PRINT?DISPLAYER
            CODE    2BB0H     0020H     UNIT         ?PR?_DS1302WRITE?DS1302
            CODE    2BD0H     001DH     UNIT         ?PR?MYVIB_CALLBACK?MAIN
            CODE    2BEDH     001DH     UNIT         ?PR?HALLINIT?HALL
            CODE    2C0AH     001DH     UNIT         ?PR?KEYINIT?KEY
            CODE    2C27H     001DH     UNIT         ?PR?VIBINIT?VIB
            CODE    2C44H     001BH     UNIT         ?PR?DISPLAYERINIT?DISPLAYER
            CODE    2C5FH     0019H     UNIT         ?PR?_DS1302WRITEBYTE?DS1302
            CODE    2C78H     0019H     UNIT         ?PR?DS1302READBYTE?DS1302
            CODE    2C91H     0019H     UNIT         ?PR?RTC_WRITE?DS1302
            CODE    2CAAH     0012H     UNIT         ?PR?_NVM_READ?DS1302
            CODE    2CBCH     0011H     UNIT         ?PR?_SETCCP0?SYS
            CODE    2CCDH     000FH     UNIT         ?PR?_?SYS_GET_KNEVENT?ADC
            CODE    2CDCH     000FH     UNIT         ?PR?_?SYS_GET_EXTADCEVENT?ADC
            CODE    2CEBH     000FH     UNIT         ?PR?_?SYS_GET_HALLEVENT?HALL
            CODE    2CFAH     000FH     UNIT         ?PR?_?SYS_GET_KEYEVENT?KEY
            CODE    2D09H     000FH     UNIT         ?PR?_?SYS_GET_SVEVENT?VIB
            CODE    2D18H     000FH     UNIT         ?PR?_?GETVIBACT?VIB
            CODE    2D27H     000FH     UNIT         ?PR?MUSICPLAYERINIT?MUSIC
            CODE    2D36H     000FH     UNIT         ?PR?_?SYS_GET_UART2RXDEVENT?UART2
            CODE    2D45H     000EH     UNIT         ?PR?_?SYS_SV_DRV?VIB
            CODE    2D53H     000CH     UNIT         ?PR?GETBEEPSTATUS?BEEP
            CODE    2D5FH     000BH     UNIT         ?PR?GETUART2TXSTATUS?UART2
            CODE    2D6AH     0009H     UNIT         ?CO?ADC
            CODE    2D73H     0009H     UNIT         ?PR?_SETDISPLAYERAREA?DISPLAYER
            CODE    2D7CH     0009H     UNIT         ?PR?GETBEEPTIMER?SYS
            CODE    2D85H     0009H     UNIT         ?PR?_SETBEEPTIMER?SYS
            CODE    2D8EH     0007H     UNIT         ?PR?GETADC?ADC
            CODE    2D95H     0007H     UNIT         ?PR?GETSYSPERFORMANCE?SYS
            CODE    2D9CH     0007H     UNIT         ?PR?RTC_READ?DS1302
            CODE    2DA3H     0006H     UNIT         ?PR?ADC_ISR?ADC
            CODE    2DA9H     0006H     UNIT         ?PR?_LEDPRINT?DISPLAYER
            CODE    2DAFH     0006H     UNIT         ?PR?GETHALLACT?HALL
            CODE    2DB5H     0006H     UNIT         ?PR?MYSTC_INIT?SYS
            CODE    2DBBH     0006H     UNIT         ?PR?GETPLAYERMODE?MUSIC
            CODE    2DC1H     0003H     UNIT         ?PR?MY10MS_CALLBACK?MAIN
BL51 BANKED LINKER/LOCATER V6.22                                                      09/19/2025  10:17:04  PAGE 4


            CODE    2DC4H     0003H     UNIT         ?PR?_?RET0FUNC?SYS
            CODE    2DC7H     0003H     UNIT         ?PR?CLRBEEPPIN?SYS
            CODE    2DCAH     0001H     UNIT         ?PR?_?NULLFUNC?SYS
            CODE    2DCBH     0001H     UNIT         ?PR?_?NULLFUNC0?UART2



OVERLAY MAP OF MODULE:   test (MAIN)


SEGMENT                                     DATA_GROUP 
  +--> CALLED SEGMENT                     START    LENGTH
---------------------------------------------------------
?C_C51STARTUP                             -----    -----
  +--> ?PR?MAIN?MAIN
  +--> ?C_INITSEG

?PR?MAIN?MAIN                             -----    -----
  +--> ?PR?_UART2INIT?UART2
  +--> ?PR?DISPLAYERINIT?DISPLAYER
  +--> ?PR?KEYINIT?KEY
  +--> ?PR?VIBINIT?VIB
  +--> ?PR?MUSICPLAYERINIT?MUSIC
  +--> ?PR?BEEPINIT?BEEP
  +--> ?PR?HALLINIT?HALL
  +--> ?PR?_SETDISPLAYERAREA?DISPLAYER
  +--> ?PR?DS1302INIT?DS1302
  +--> ?PR?_ADCINIT?ADC
  +--> ?PR?_SETUART2RXD?UART2
  +--> ?CO?MAIN
  +--> ?PR?_SETMUSIC?MUSIC
  +--> ?PR?MYHALL_CALLBACK?MAIN
  +--> ?PR?_SETEVENTCALLBACK?SYS
  +--> ?PR?MYVIB_CALLBACK?MAIN
  +--> ?PR?MYKEY_CALLBACK?MAIN
  +--> ?PR?MYUART2_CALLBACK?MAIN
  +--> ?PR?MYDISPLAY_CALLBACK?MAIN
  +--> ?PR?MYLED_CALLBACK?MAIN
  +--> ?PR?MY10MS_CALLBACK?MAIN
  +--> ?PR?MYSTC_INIT?SYS
  +--> ?PR?MYSTC_OS?SYS

?PR?_UART2INIT?UART2                      0008H    0005H
  +--> ?PR?_?NULLFUNC0?UART2
  +--> ?CO?MAIN
  +--> ?PR?_?SYS_GET_UART2RXDEVENT?UART2

?PR?DISPLAYERINIT?DISPLAYER               -----    -----
  +--> ?PR?_?SYS_DISPLAY_DRV?DISPLAYER

?PR?_?SYS_DISPLAY_DRV?DISPLAYER           -----    -----
  +--> ?CO?MAIN

?PR?KEYINIT?KEY                           -----    -----
  +--> ?PR?_?SYS_GET_KEYEVENT?KEY
  +--> ?PR?_?SYS_KEY_DRV?KEY

BL51 BANKED LINKER/LOCATER V6.22                                                      09/19/2025  10:17:04  PAGE 5


?PR?VIBINIT?VIB                           -----    -----
  +--> ?PR?_?SYS_GET_SVEVENT?VIB
  +--> ?PR?_?SYS_SV_DRV?VIB

?PR?MUSICPLAYERINIT?MUSIC                 -----    -----
  +--> ?PR?_?SYS_MUSIC_DRV?MUSIC

?PR?_?SYS_MUSIC_DRV?MUSIC                 -----    -----
  +--> ?PR?GETBEEPSTATUS?BEEP
  +--> ?PR?_SEG7PRINT?DISPLAYER
  +--> ?PR?_LEDPRINT?DISPLAYER
  +--> ?PR?_PLAYTONE?MUSIC

?PR?GETBEEPSTATUS?BEEP                    -----    -----
  +--> ?PR?GETBEEPTIMER?SYS

?PR?_SEG7PRINT?DISPLAYER                  0012H    0008H

?PR?_PLAYTONE?MUSIC                       0008H    0006H
  +--> ?PR?GETBEEPSTATUS?BEEP
  +--> ?CO?MUSIC
  +--> ?PR?_SETBEEP?BEEP

?PR?_SETBEEP?BEEP                         000EH    0004H
  +--> ?PR?GETBEEPTIMER?SYS
  +--> ?PR?_SETBEEPTIMER?SYS
  +--> ?CO?MAIN
  +--> ?PR?_SETCCP0?SYS
  +--> ?PR?CLRBEEPPIN?SYS

?PR?BEEPINIT?BEEP                         -----    -----
  +--> ?PR?CLRBEEPPIN?SYS
  +--> ?PR?_?SYS_BEEP_DRV?BEEP

?PR?_?SYS_BEEP_DRV?BEEP                   -----    -----
  +--> ?PR?GETBEEPTIMER?SYS
  +--> ?PR?_SETBEEPTIMER?SYS

?PR?HALLINIT?HALL                         -----    -----
  +--> ?PR?_?SYS_GET_HALLEVENT?HALL
  +--> ?PR?_?SYS_HALL_DRV?HALL

?PR?DS1302INIT?DS1302                     0008H    0007H
  +--> ?PR?_DS1302READ?DS1302
  +--> ?PR?_DS1302WRITE?DS1302
  +--> ?PR?_NVM_READ?DS1302
  +--> ?PR?RTC_WRITE?DS1302
  +--> ?PR?_NVM_WRITE?DS1302
  +--> ?PR?_?SYS_DS1302_DRV?DS1302

?PR?_DS1302READ?DS1302                    -----    -----
  +--> ?PR?_DS1302WRITEBYTE?DS1302
  +--> ?PR?DS1302READBYTE?DS1302

?PR?_DS1302WRITE?DS1302                   -----    -----
  +--> ?PR?_DS1302WRITEBYTE?DS1302

BL51 BANKED LINKER/LOCATER V6.22                                                      09/19/2025  10:17:04  PAGE 6


?PR?_NVM_READ?DS1302                      -----    -----
  +--> ?PR?_DS1302READ?DS1302

?PR?RTC_WRITE?DS1302                      000FH    0007H

?PR?_NVM_WRITE?DS1302                     -----    -----
  +--> ?PR?_DS1302WRITE?DS1302

?PR?_?SYS_DS1302_DRV?DS1302               -----    -----
  +--> ?PR?_DS1302READ?DS1302
  +--> ?PR?_DS1302WRITE?DS1302

?PR?_ADCINIT?ADC                          -----    -----
  +--> ?PR?_?SYS_ADC_DRV?ADC
  +--> ?PR?_?SYS_GET_KNEVENT?ADC
  +--> ?PR?_?SYS_GET_EXTADCEVENT?ADC

?PR?_?SYS_ADC_DRV?ADC                     -----    -----
  +--> ?CO?ADC

?PR?_SETUART2RXD?UART2                    0008H    000AH

?PR?_SETMUSIC?MUSIC                       0008H    0008H

?PR?MYHALL_CALLBACK?MAIN                  0008H    0001H
  +--> ?PR?GETHALLACT?HALL
  +--> ?PR?_UART2PRINT?UART2

?PR?_SETEVENTCALLBACK?SYS                 0008H    0003H

?PR?MYVIB_CALLBACK?MAIN                   -----    -----
  +--> ?PR?_?GETVIBACT?VIB
  +--> ?PR?_UART2PRINT?UART2

?PR?MYKEY_CALLBACK?MAIN                   -----    -----
  +--> ?PR?_GETKEYACT?KEY
  +--> ?PR?_SETPLAYERMODE?MUSIC
  +--> ?PR?_UART2PRINT?UART2

?PR?MYUART2_CALLBACK?MAIN                 0008H    0002H

?PR?MYDISPLAY_CALLBACK?MAIN               0008H    000AH
  +--> ?PR?RTC_READ?DS1302
  +--> ?PR?_UART2PRINT?UART2
  +--> ?PR?_SEG7PRINT?DISPLAYER
  +--> ?PR?_LEDPRINT?DISPLAYER
  +--> ?PR?GETADC?ADC

?PR?MYLED_CALLBACK?MAIN                   -----    -----
  +--> ?PR?_LEDPRINT?DISPLAYER

?PR?MY10MS_CALLBACK?MAIN                  -----    -----
  +--> ?PR?BEEP_CHECK?MAIN

?PR?BEEP_CHECK?MAIN                       -----    -----
  +--> ?PR?GETBEEPSTATUS?BEEP
  +--> ?PR?_SETBEEP?BEEP
BL51 BANKED LINKER/LOCATER V6.22                                                      09/19/2025  10:17:04  PAGE 7



?PR?MYSTC_INIT?SYS                        -----    -----
  +--> ?PR?SYS_TIMER0_INIT?SYS

?PR?SYS_TIMER0_INIT?SYS                   -----    -----
  +--> ?CO?MAIN

?PR?MYSTC_OS?SYS                          -----    -----
  +--> ?PR?SYS_TASK_IR?SYS
  +--> ?PR?SYS_TASK_1MS?SYS
  +--> ?PR?SYS_TASK_10MS?SYS
  +--> ?PR?SYS_TASK_100MS?SYS
  +--> ?PR?SYS_TASK_1S?SYS

?C_INITSEG                                -----    -----
  +--> ?PR?_?NULLFUNC?SYS
  +--> ?PR?_?RET0FUNC?SYS



SYMBOL TABLE OF MODULE:  test (MAIN)

  VALUE           TYPE          NAME
  ----------------------------------

  -------         MODULE        MAIN
  C:0000H         SYMBOL        _ICE_DUMMY_
  C:24DBH         PUBLIC        beep_check
  D:0080H         PUBLIC        P0
  D:0090H         PUBLIC        P1
  D:00A0H         PUBLIC        P2
  D:00B0H         PUBLIC        P3
  D:00C0H         PUBLIC        P4
  D:00C8H         PUBLIC        P5
  D:00E8H         PUBLIC        P6
  D:00F8H         PUBLIC        P7
  D:00A8H         PUBLIC        IE
  D:0023H         PUBLIC        interp
  D:00B8H         PUBLIC        IP
  D:0025H         PUBLIC        currentTime
  C:2BD0H         PUBLIC        myVib_callback
  C:2DC1H         PUBLIC        my10mS_callback
  D:00D8H         PUBLIC        CCON
  C:277DH         PUBLIC        myKey_callback
  C:1737H         PUBLIC        pokemon_get_DAZE
  C:1DE1H         PUBLIC        main
  D:002CH         PUBLIC        count
  C:1705H         PUBLIC        SysClock
  D:002EH         PUBLIC        led_flow_reverse
  D:0098H         PUBLIC        SCON
  D:0088H         PUBLIC        TCON
  D:0030H         PUBLIC        uart_data
  D:0044H         PUBLIC        LEDchange
  D:0046H         PUBLIC        initTime
  D:004DH         PUBLIC        data_recieved
  C:29D7H         PUBLIC        myUart2_callback
  C:1F63H         PUBLIC        myLED_callback
BL51 BANKED LINKER/LOCATER V6.22                                                      09/19/2025  10:17:04  PAGE 8


  C:1709H         PUBLIC        decode_table
  C:0BABH         PUBLIC        myDisplay_callback
  D:0052H         PUBLIC        matched_data
  D:0054H         PUBLIC        led_val
  D:0055H         PUBLIC        a
  D:00D0H         PUBLIC        PSW
  C:28D8H         PUBLIC        myHall_callback
  D:0057H         PUBLIC        LEDmode
  -------         PROC          MYUART2_CALLBACK
  -------         DO            
  D:0007H         SYMBOL        flag
  D:0008H         SYMBOL        menu_select
  D:0009H         SYMBOL        function
  -------         ENDDO         
  C:29D7H         LINE#         129
  C:29D7H         LINE#         130
  C:29D7H         LINE#         131
  C:29D9H         LINE#         132
  C:29DCH         LINE#         133
  C:29DFH         LINE#         135
  C:29E7H         LINE#         136
  C:29EFH         LINE#         137
  C:29F2H         LINE#         138
  C:29F9H         LINE#         139
  C:29FCH         LINE#         140
  C:29FCH         LINE#         141
  C:2A02H         LINE#         142
  C:2A02H         LINE#         144
  C:2A05H         LINE#         145
  C:2A05H         LINE#         146
  C:2A0AH         LINE#         147
  C:2A0AH         LINE#         148
  -------         ENDPROC       MYUART2_CALLBACK
  -------         PROC          MYDISPLAY_CALLBACK
  -------         DO            
  D:0008H         SYMBOL        flag
  D:0009H         SYMBOL        menu_select
  -------         DO            
  D:000AH         SYMBOL        dispData
  D:000AH         SYMBOL        lux
  D:000CH         SYMBOL        rt
  -------         ENDDO         
  -------         DO            
  D:000AH         SYMBOL        lux
  D:000CH         SYMBOL        rt
  -------         ENDDO         
  -------         ENDDO         
  C:0BABH         LINE#         149
  C:0BABH         LINE#         150
  C:0BABH         LINE#         151
  C:0BAEH         LINE#         152
  C:0BB1H         LINE#         153
  C:0BB5H         LINE#         154
  C:0BB5H         LINE#         155
  C:0BB9H         LINE#         156
  C:0BBBH         LINE#         157
  C:0BC0H         LINE#         158
BL51 BANKED LINKER/LOCATER V6.22                                                      09/19/2025  10:17:04  PAGE 9


  C:0BD5H         LINE#         159
  C:0BDAH         LINE#         160
  C:0BEFH         LINE#         161
  C:0BF4H         LINE#         162
  C:0C0CH         LINE#         163
  C:0C15H         LINE#         164
  C:0C2AH         LINE#         165
  C:0C2DH         LINE#         166
  C:0C32H         LINE#         167
  C:0C4AH         LINE#         168
  C:0C4FH         LINE#         169
  C:0C67H         LINE#         170
  C:0C70H         LINE#         171
  C:0C70H         LINE#         172
  C:0C75H         LINE#         173
  C:0C8DH         LINE#         174
  C:0C92H         LINE#         175
  C:0CAAH         LINE#         176
  C:0CAFH         LINE#         177
  C:0CC7H         LINE#         178
  C:0CCCH         LINE#         179
  C:0CE4H         LINE#         180
  C:0CE9H         LINE#         181
  C:0D01H         LINE#         182
  C:0D0AH         LINE#         183
  C:0D1FH         LINE#         184
  C:0D22H         LINE#         185
  C:0D2BH         LINE#         186
  C:0D2BH         LINE#         190
  C:0D3BH         LINE#         193
  C:0D42H         LINE#         194
  C:0D48H         LINE#         195
  C:0D4BH         LINE#         196
  C:0D52H         LINE#         197
  C:0D58H         LINE#         198
  C:0D5BH         LINE#         199
  C:0D62H         LINE#         200
  C:0D68H         LINE#         202
  C:0D6BH         LINE#         203
  C:0D6EH         LINE#         204
  C:0D71H         LINE#         205
  C:0D74H         LINE#         206
  C:0D77H         LINE#         207
  C:0D79H         LINE#         208
  C:0D7CH         LINE#         209
  C:0D83H         LINE#         210
  C:0D89H         LINE#         211
  C:0D90H         LINE#         212
  C:0D96H         LINE#         213
  C:0D9DH         LINE#         214
  C:0DA3H         LINE#         215
  C:0DAAH         LINE#         216
  C:0DB0H         LINE#         217
  C:0DBDH         LINE#         219
  C:0DD5H         LINE#         221
  C:0DDAH         LINE#         222
  C:0DDAH         LINE#         223
BL51 BANKED LINKER/LOCATER V6.22                                                      09/19/2025  10:17:04  PAGE 10


  C:0DE3H         LINE#         224
  C:0DE3H         LINE#         225
  C:0DF5H         LINE#         226
  C:0E07H         LINE#         228
  C:0E1AH         LINE#         229
  C:0E2EH         LINE#         230
  C:0E3BH         LINE#         231
  C:0E4FH         LINE#         232
  C:0E63H         LINE#         233
  C:0E70H         LINE#         234
  C:0E73H         LINE#         235
  C:0E80H         LINE#         236
  C:0EF9H         LINE#         237
  C:0EF9H         LINE#         238
  -------         ENDPROC       MYDISPLAY_CALLBACK
  -------         PROC          MYKEY_CALLBACK
  C:277DH         LINE#         239
  C:277DH         LINE#         240
  C:277DH         LINE#         241
  C:2785H         LINE#         242
  C:2785H         LINE#         243
  C:278AH         LINE#         244
  C:278DH         LINE#         245
  C:2790H         LINE#         246
  C:2793H         LINE#         247
  C:27A0H         LINE#         248
  C:27A0H         LINE#         249
  C:27A8H         LINE#         250
  C:27A8H         LINE#         251
  C:27ADH         LINE#         252
  C:27B0H         LINE#         253
  C:27B3H         LINE#         254
  C:27B6H         LINE#         255
  C:27C3H         LINE#         256
  C:27C3H         LINE#         257
  -------         ENDPROC       MYKEY_CALLBACK
  -------         PROC          BEEP_CHECK
  C:24DBH         LINE#         258
  C:24DBH         LINE#         259
  C:24DBH         LINE#         260
  C:24E7H         LINE#         261
  C:24E7H         LINE#         262
  C:24EFH         LINE#         263
  C:24EFH         LINE#         265
  C:24FCH         LINE#         266
  C:24FCH         LINE#         267
  C:2501H         LINE#         268
  C:2501H         LINE#         270
  C:250FH         LINE#         271
  C:250FH         LINE#         272
  C:2514H         LINE#         273
  C:2516H         LINE#         274
  C:2524H         LINE#         275
  C:2524H         LINE#         276
  C:2529H         LINE#         277
  C:252BH         LINE#         278
  C:2539H         LINE#         279
BL51 BANKED LINKER/LOCATER V6.22                                                      09/19/2025  10:17:04  PAGE 11


  C:2539H         LINE#         280
  C:2543H         LINE#         281
  C:2543H         LINE#         282
  C:2551H         LINE#         283
  C:2551H         LINE#         284
  C:255BH         LINE#         285
  C:2561H         LINE#         286
  C:2561H         LINE#         287
  -------         ENDPROC       BEEP_CHECK
  -------         PROC          MYLED_CALLBACK
  C:1F63H         LINE#         288
  C:1F63H         LINE#         289
  C:1F63H         LINE#         291
  C:1F73H         LINE#         292
  C:1F73H         LINE#         293
  C:1F75H         LINE#         294
  C:1F77H         LINE#         295
  C:1F89H         LINE#         296
  C:1F89H         LINE#         297
  C:1F8BH         LINE#         298
  C:1F8DH         LINE#         299
  C:1F95H         LINE#         300
  C:1F95H         LINE#         301
  C:1F97H         LINE#         302
  C:1F99H         LINE#         303
  C:1FA9H         LINE#         304
  C:1FA9H         LINE#         305
  C:1FABH         LINE#         306
  C:1FADH         LINE#         307
  C:1FBFH         LINE#         308
  C:1FBFH         LINE#         309
  C:1FC4H         LINE#         310
  C:1FC4H         LINE#         311
  C:1FD3H         LINE#         314
  C:1FE2H         LINE#         315
  C:1FE2H         LINE#         316
  C:1FE8H         LINE#         317
  C:1FE9H         LINE#         318
  C:1FFAH         LINE#         319
  C:1FFAH         LINE#         320
  C:2000H         LINE#         321
  C:2001H         LINE#         322
  C:200CH         LINE#         323
  C:200CH         LINE#         324
  C:201BH         LINE#         325
  C:201BH         LINE#         326
  -------         ENDPROC       MYLED_CALLBACK
  -------         PROC          MY10MS_CALLBACK
  C:2DC1H         LINE#         327
  C:2DC1H         LINE#         328
  C:2DC1H         LINE#         330
  -------         ENDPROC       MY10MS_CALLBACK
  -------         PROC          MYVIB_CALLBACK
  -------         DO            
  D:0007H         SYMBOL        k
  -------         ENDDO         
  C:2BD0H         LINE#         332
BL51 BANKED LINKER/LOCATER V6.22                                                      09/19/2025  10:17:04  PAGE 12


  C:2BD0H         LINE#         333
  C:2BD0H         LINE#         334
  C:2BD3H         LINE#         335
  C:2BD6H         LINE#         336
  C:2BD6H         LINE#         337
  C:2BD9H         LINE#         338
  C:2BDCH         LINE#         339
  C:2BDFH         LINE#         340
  C:2BECH         LINE#         341
  C:2BECH         LINE#         342
  -------         ENDPROC       MYVIB_CALLBACK
  -------         PROC          MYHALL_CALLBACK
  -------         DO            
  D:0008H         SYMBOL        k
  -------         ENDDO         
  C:28D8H         LINE#         343
  C:28D8H         LINE#         344
  C:28D8H         LINE#         345
  C:28DDH         LINE#         346
  C:28E2H         LINE#         347
  C:28E2H         LINE#         348
  C:28E5H         LINE#         349
  C:28E8H         LINE#         350
  C:28EBH         LINE#         351
  C:28F8H         LINE#         353
  C:28FDH         LINE#         354
  C:28FEH         LINE#         355
  C:2903H         LINE#         356
  C:2903H         LINE#         357
  C:2906H         LINE#         358
  C:2909H         LINE#         359
  C:290CH         LINE#         360
  C:2919H         LINE#         361
  C:2919H         LINE#         362
  -------         ENDPROC       MYHALL_CALLBACK
  -------         PROC          MAIN
  C:1DE1H         LINE#         364
  C:1DE1H         LINE#         365
  C:1DE1H         LINE#         366
  C:1DEDH         LINE#         367
  C:1DF0H         LINE#         368
  C:1DF3H         LINE#         369
  C:1DF6H         LINE#         370
  C:1DF9H         LINE#         371
  C:1DFCH         LINE#         372
  C:1DFFH         LINE#         373
  C:1E06H         LINE#         374
  C:1E1CH         LINE#         375
  C:1E21H         LINE#         377
  C:1E3DH         LINE#         379
  C:1E53H         LINE#         381
  C:1E5EH         LINE#         382
  C:1E69H         LINE#         383
  C:1E74H         LINE#         384
  C:1E7FH         LINE#         385
  C:1E8AH         LINE#         386
  C:1E95H         LINE#         387
BL51 BANKED LINKER/LOCATER V6.22                                                      09/19/2025  10:17:04  PAGE 13


  C:1EA0H         LINE#         389
  C:1EA3H         LINE#         390
  C:1EA3H         LINE#         391
  C:1EA3H         LINE#         392
  C:1EA6H         LINE#         393
  -------         ENDPROC       MAIN
  -------         ENDMOD        MAIN

  -------         MODULE        ADC
  C:0000H         SYMBOL        _ICE_DUMMY_
  D:0080H         PUBLIC        P0
  D:0090H         PUBLIC        P1
  D:00A0H         PUBLIC        P2
  C:2CCDH         PUBLIC        _?sys_get_KNEvent
  X:0071H         PUBLIC        sys_EXTADCEvent
  D:00B0H         PUBLIC        P3
  D:00C0H         PUBLIC        P4
  D:00C8H         PUBLIC        P5
  D:00E8H         PUBLIC        P6
  D:00F8H         PUBLIC        P7
  B:00A8H.5       PUBLIC        EADC
  D:00A8H         PUBLIC        IE
  D:00BDH         PUBLIC        ADC_RES
  D:00B8H         PUBLIC        IP
  D:0097H         PUBLIC        CLK_DIV
  C:2A0BH         PUBLIC        _AdcInit
  D:00D8H         PUBLIC        CCON
  C:2CDCH         PUBLIC        _?sys_get_EXTADCEvent
  X:0072H         PUBLIC        AD_res
  D:00BCH         PUBLIC        ADC_CONTR
  D:0098H         PUBLIC        SCON
  D:0088H         PUBLIC        TCON
  C:13D7H         PUBLIC        _?sys_ADC_drv
  B:0021H.7       PUBLIC        flag_ADC
  X:007CH         PUBLIC        sys_KN
  D:009DH         PUBLIC        P1ASF
  X:008EH         PUBLIC        sys_KNEvent
  D:00BEH         PUBLIC        ADC_RESL
  C:2D8EH         PUBLIC        GetADC
  C:280BH         PUBLIC        _GetAdcNavAct
  C:2DA3H         PUBLIC        ADC_isr
  D:00D0H         PUBLIC        PSW
  -------         PROC          ADC_ISR
  C:2DA3H         LINE#         26
  C:2DA3H         LINE#         27
  C:2DA6H         LINE#         28
  C:2DA8H         LINE#         29
  -------         ENDPROC       ADC_ISR
  -------         PROC          _?SYS_ADC_DRV
  -------         DO            
  X:006FH         SYMBOL        pc
  X:0070H         SYMBOL        counter
  i:0000H         SYMBOL        i
  C:2D6AH         SYMBOL        ADC_ch
  -------         ENDDO         
  C:13D7H         LINE#         31
  C:13D9H         LINE#         35
BL51 BANKED LINKER/LOCATER V6.22                                                      09/19/2025  10:17:04  PAGE 14


  C:13DFH         LINE#         36
  C:13E1H         LINE#         37
  C:140FH         LINE#         38
  C:140FH         LINE#         39
  C:140FH         LINE#         40
  C:141FH         LINE#         41
  C:1421H         LINE#         42
  C:1421H         LINE#         43
  C:1421H         LINE#         44
  C:1435H         LINE#         45
  C:143BH         LINE#         46
  C:143EH         LINE#         47
  C:144EH         LINE#         48
  C:1450H         LINE#         49
  C:1464H         LINE#         50
  C:1467H         LINE#         51
  C:147BH         LINE#         52
  C:148EH         LINE#         53
  C:14A6H         LINE#         54
  C:14B1H         LINE#         55
  C:14B4H         LINE#         56
  C:14C4H         LINE#         57
  C:14D8H         LINE#         58
  C:14EDH         LINE#         59
  C:14FEH         LINE#         60
  C:1502H         LINE#         61
  C:1502H         LINE#         62
  C:1504H         LINE#         64
  C:151BH         LINE#         65
  C:152CH         LINE#         66
  C:1531H         LINE#         67
  C:1531H         LINE#         68
  C:1531H         LINE#         69
  C:1554H         LINE#         70
  C:1565H         LINE#         71
  C:1569H         LINE#         72
  C:1569H         LINE#         73
  C:1569H         LINE#         74
  C:156FH         LINE#         75
  C:156FH         LINE#         76
  C:156FH         LINE#         77
  C:157BH         LINE#         78
  C:1587H         LINE#         79
  C:1587H         LINE#         80
  -------         ENDPROC       _?SYS_ADC_DRV
  -------         PROC          _?SYS_GET_KNEVENT
  -------         DO            
  i:0000H         SYMBOL        a
  -------         ENDDO         
  C:2CCDH         LINE#         82
  C:2CCFH         LINE#         84
  C:2CD7H         LINE#         85
  C:2CD9H         LINE#         86
  C:2CD9H         LINE#         87
  -------         ENDPROC       _?SYS_GET_KNEVENT
  -------         PROC          _?SYS_GET_EXTADCEVENT
  -------         DO            
BL51 BANKED LINKER/LOCATER V6.22                                                      09/19/2025  10:17:04  PAGE 15


  i:0000H         SYMBOL        a
  -------         ENDDO         
  C:2CDCH         LINE#         89
  C:2CDEH         LINE#         91
  C:2CE6H         LINE#         92
  C:2CE8H         LINE#         93
  C:2CE8H         LINE#         94
  -------         ENDPROC       _?SYS_GET_EXTADCEVENT
  -------         PROC          _ADCINIT
  D:0007H         SYMBOL        ADCsel
  C:2A0BH         LINE#         96
  C:2A0BH         LINE#         97
  C:2A0BH         LINE#         98
  C:2A0DH         LINE#         99
  C:2A10H         LINE#         100
  C:2A13H         LINE#         101
  C:2A15H         LINE#         102
  C:2A23H         LINE#         103
  C:2A2FH         LINE#         104
  C:2A3BH         LINE#         105
  -------         ENDPROC       _ADCINIT
  -------         PROC          GETADC
  C:2D8EH         LINE#         107
  C:2D8EH         LINE#         108
  C:2D94H         LINE#         109
  -------         ENDPROC       GETADC
  -------         PROC          _GETADCNAVACT
  D:0007H         SYMBOL        Nav_button
  -------         DO            
  D:0006H         SYMBOL        a
  -------         ENDDO         
  C:280BH         LINE#         111
  C:280BH         LINE#         112
  C:280BH         LINE#         113
  C:281BH         LINE#         114
  C:2836H         LINE#         115
  C:284BH         LINE#         116
  C:284EH         LINE#         117
  C:284EH         LINE#         118
  C:2850H         LINE#         119
  -------         ENDPROC       _GETADCNAVACT
  -------         ENDMOD        ADC

  -------         MODULE        BEEP
  C:0000H         SYMBOL        _ICE_DUMMY_
  D:0080H         PUBLIC        P0
  D:00B2H         PUBLIC        P3M0
  D:0090H         PUBLIC        P1
  D:00B1H         PUBLIC        P3M1
  D:00A0H         PUBLIC        P2
  D:00B0H         PUBLIC        P3
  D:00C0H         PUBLIC        P4
  D:00C8H         PUBLIC        P5
  D:00E8H         PUBLIC        P6
  D:00F8H         PUBLIC        P7
  D:00F9H         PUBLIC        CH
  C:2B20H         PUBLIC        _?sys_beep_drv
BL51 BANKED LINKER/LOCATER V6.22                                                      09/19/2025  10:17:04  PAGE 16


  D:00A8H         PUBLIC        IE
  D:00E9H         PUBLIC        CL
  C:2B70H         PUBLIC        BeepInit
  B:00D8H.6       PUBLIC        CR
  D:00DAH         PUBLIC        CCAPM0
  D:00B8H         PUBLIC        IP
  D:00D9H         PUBLIC        CMOD
  D:00D8H         PUBLIC        CCON
  C:2D53H         PUBLIC        GetBeepStatus
  C:2660H         PUBLIC        _SetBeep
  D:0098H         PUBLIC        SCON
  D:0088H         PUBLIC        TCON
  D:00D0H         PUBLIC        PSW
  B:00D8H.0       PUBLIC        CCF0
  -------         PROC          _?SYS_BEEP_DRV
  -------         DO            
  i:0000H         SYMBOL        a
  -------         ENDDO         
  C:2B20H         LINE#         11
  C:2B24H         LINE#         13
  C:2B2EH         LINE#         14
  C:2B43H         LINE#         15
  -------         ENDPROC       _?SYS_BEEP_DRV
  -------         PROC          BEEPINIT
  C:2B70H         LINE#         17
  C:2B70H         LINE#         18
  C:2B70H         LINE#         19
  C:2B73H         LINE#         20
  C:2B76H         LINE#         21
  C:2B79H         LINE#         22
  C:2B7CH         LINE#         23
  C:2B7FH         LINE#         24
  C:2B81H         LINE#         25
  C:2B8FH         LINE#         26
  -------         ENDPROC       BEEPINIT
  -------         PROC          _SETBEEP
  D:000EH         SYMBOL        Beep_freq
  D:0010H         SYMBOL        Beep_time
  -------         DO            
  D:0002H         SYMBOL        a
  D:0004H         SYMBOL        b
  -------         ENDDO         
  C:2660H         LINE#         28
  C:2668H         LINE#         29
  C:2668H         LINE#         31
  C:266FH         LINE#         32
  C:2676H         LINE#         33
  C:2681H         LINE#         34
  C:26AAH         LINE#         35
  C:26BEH         LINE#         36
  C:26C5H         LINE#         37
  C:26C7H         LINE#         38
  C:26CAH         LINE#         39
  C:26CCH         LINE#         41
  C:26CFH         LINE#         42
  C:26D2H         LINE#         43
  C:26D2H         LINE#         44
BL51 BANKED LINKER/LOCATER V6.22                                                      09/19/2025  10:17:04  PAGE 17


  C:26D5H         LINE#         45
  C:26D5H         LINE#         46
  C:26D7H         LINE#         47
  -------         ENDPROC       _SETBEEP
  -------         PROC          GETBEEPSTATUS
  C:2D53H         LINE#         49
  C:2D53H         LINE#         50
  C:2D5CH         LINE#         51
  C:2D5EH         LINE#         52
  -------         ENDPROC       GETBEEPSTATUS
  -------         ENDMOD        BEEP

  -------         MODULE        DISPLAYER
  C:0000H         SYMBOL        _ICE_DUMMY_
  D:0093H         PUBLIC        P0M1
  D:0096H         PUBLIC        P2M0
  D:0080H         PUBLIC        P0
  D:0095H         PUBLIC        P2M1
  D:0090H         PUBLIC        P1
  D:00A0H         PUBLIC        P2
  D:00B0H         PUBLIC        P3
  D:00C0H         PUBLIC        P4
  D:00C8H         PUBLIC        P5
  D:00E8H         PUBLIC        P6
  D:00F8H         PUBLIC        P7
  C:22A6H         PUBLIC        _Seg7SetMode
  D:00A8H         PUBLIC        IE
  D:00B8H         PUBLIC        IP
  D:00D8H         PUBLIC        CCON
  C:2DA9H         PUBLIC        _LedPrint
  B:00A0H.0       PUBLIC        P20
  B:00A0H.1       PUBLIC        P21
  D:0098H         PUBLIC        SCON
  B:00A0H.2       PUBLIC        P22
  D:0088H         PUBLIC        TCON
  B:00A0H.3       PUBLIC        P23
  C:2C44H         PUBLIC        DisplayerInit
  C:2335H         PUBLIC        _LedSetMode
  X:0091H         PUBLIC        sys_Disp
  C:2D73H         PUBLIC        _SetDisplayerArea
  C:2B90H         PUBLIC        _Seg7Print
  C:158AH         PUBLIC        _?sys_display_drv
  D:00D0H         PUBLIC        PSW
  D:0094H         PUBLIC        P0M0
  -------         PROC          _?SYS_DISPLAY_DRV
  -------         DO            
  X:008FH         SYMBOL        T1mS
  X:0090H         SYMBOL        T100mS
  i:0000H         SYMBOL        d
  i:0001H         SYMBOL        i
  -------         ENDDO         
  C:158AH         LINE#         18
  C:158EH         LINE#         21
  C:159BH         LINE#         22
  C:159EH         LINE#         23
  C:15ABH         LINE#         24
  C:15ABH         LINE#         25
BL51 BANKED LINKER/LOCATER V6.22                                                      09/19/2025  10:17:04  PAGE 18


  C:15AEH         LINE#         26
  C:15D7H         LINE#         27
  C:15DDH         LINE#         28
  C:15E3H         LINE#         29
  C:15E9H         LINE#         30
  C:15EFH         LINE#         31
  C:15F9H         LINE#         32
  C:1603H         LINE#         33
  C:160DH         LINE#         34
  C:1617H         LINE#         35
  C:1619H         LINE#         36
  C:1619H         LINE#         37
  C:1621H         LINE#         38
  C:1646H         LINE#         39
  C:1666H         LINE#         40
  C:1666H         LINE#         41
  C:1668H         LINE#         43
  C:1671H         LINE#         44
  C:1684H         LINE#         45
  C:1693H         LINE#         46
  C:1693H         LINE#         47
  C:16AFH         LINE#         48
  C:16C4H         LINE#         49
  C:16CAH         LINE#         50
  C:16CFH         LINE#         51
  C:16D1H         LINE#         52
  C:16D4H         LINE#         53
  C:16D4H         LINE#         55
  C:16EBH         LINE#         56
  C:16F8H         LINE#         58
  C:1700H         LINE#         59
  -------         ENDPROC       _?SYS_DISPLAY_DRV
  -------         PROC          DISPLAYERINIT
  C:2C44H         LINE#         61
  C:2C44H         LINE#         62
  C:2C44H         LINE#         63
  C:2C47H         LINE#         64
  C:2C4AH         LINE#         65
  C:2C4DH         LINE#         66
  C:2C50H         LINE#         67
  C:2C5EH         LINE#         68
  -------         ENDPROC       DISPLAYERINIT
  -------         PROC          _SETDISPLAYERAREA
  D:0007H         SYMBOL        Begin_of_scan
  D:0005H         SYMBOL        Ending_of_Scan
  C:2D73H         LINE#         70
  C:2D73H         LINE#         71
  C:2D78H         LINE#         72
  C:2D7BH         LINE#         73
  -------         ENDPROC       _SETDISPLAYERAREA
  -------         PROC          _SEG7PRINT
  D:0007H         SYMBOL        d0
  D:0005H         SYMBOL        d1
  D:0003H         SYMBOL        d2
  D:0015H         SYMBOL        d3
  D:0016H         SYMBOL        d4
  D:0017H         SYMBOL        d5
BL51 BANKED LINKER/LOCATER V6.22                                                      09/19/2025  10:17:04  PAGE 19


  D:0018H         SYMBOL        d6
  D:0019H         SYMBOL        d7
  C:2B90H         LINE#         75
  C:2B90H         LINE#         76
  C:2B95H         LINE#         77
  C:2B98H         LINE#         78
  C:2B9BH         LINE#         79
  C:2B9FH         LINE#         80
  C:2BA3H         LINE#         81
  C:2BA7H         LINE#         82
  C:2BABH         LINE#         83
  C:2BAFH         LINE#         84
  -------         ENDPROC       _SEG7PRINT
  -------         PROC          _LEDPRINT
  D:0007H         SYMBOL        led_val
  C:2DA9H         LINE#         86
  C:2DA9H         LINE#         87
  C:2DAEH         LINE#         88
  -------         ENDPROC       _LEDPRINT
  -------         PROC          _SEG7SETMODE
  D:0007H         SYMBOL        m0
  D:0005H         SYMBOL        m1
  D:0003H         SYMBOL        m2
  D:006DH         SYMBOL        m3
  D:006EH         SYMBOL        m4
  D:006FH         SYMBOL        m5
  D:0070H         SYMBOL        m6
  D:0071H         SYMBOL        m7
  C:22A6H         LINE#         90
  C:22A6H         LINE#         91
  C:22BAH         LINE#         92
  C:22CAH         LINE#         93
  C:22DAH         LINE#         94
  C:22ECH         LINE#         95
  C:22FEH         LINE#         96
  C:2310H         LINE#         97
  C:2322H         LINE#         98
  C:2334H         LINE#         99
  -------         ENDPROC       _SEG7SETMODE
  -------         PROC          _LEDSETMODE
  D:0007H         SYMBOL        m0
  D:0005H         SYMBOL        m1
  D:0003H         SYMBOL        m2
  D:0075H         SYMBOL        m3
  D:0076H         SYMBOL        m4
  D:0077H         SYMBOL        m5
  D:0078H         SYMBOL        m6
  D:0079H         SYMBOL        m7
  C:2335H         LINE#         101
  C:2335H         LINE#         102
  C:2349H         LINE#         103
  C:2359H         LINE#         104
  C:2369H         LINE#         105
  C:237BH         LINE#         106
  C:238DH         LINE#         107
  C:239FH         LINE#         108
  C:23B1H         LINE#         109
BL51 BANKED LINKER/LOCATER V6.22                                                      09/19/2025  10:17:04  PAGE 20


  C:23C3H         LINE#         110
  -------         ENDPROC       _LEDSETMODE
  -------         ENDMOD        DISPLAYER

  -------         MODULE        HALL
  C:0000H         SYMBOL        _ICE_DUMMY_
  D:0080H         PUBLIC        P0
  D:0090H         PUBLIC        P1
  D:00A0H         PUBLIC        P2
  D:00B0H         PUBLIC        P3
  D:00C0H         PUBLIC        P4
  D:00C8H         PUBLIC        P5
  D:00E8H         PUBLIC        P6
  D:00F8H         PUBLIC        P7
  D:001CH         PUBLIC        hall_Event
  C:2CEBH         PUBLIC        _?sys_get_hallEvent
  D:00A8H         PUBLIC        IE
  C:2895H         PUBLIC        _?sys_hall_drv
  D:00B8H         PUBLIC        IP
  C:2BEDH         PUBLIC        HallInit
  B:0090H.2       PUBLIC        IO_hall
  D:00D8H         PUBLIC        CCON
  D:0098H         PUBLIC        SCON
  D:0088H         PUBLIC        TCON
  C:2DAFH         PUBLIC        GetHallAct
  X:00EAH         PUBLIC        sys_hallEvent
  D:00D0H         PUBLIC        PSW
  -------         PROC          _?SYS_HALL_DRV
  -------         DO            
  X:00E7H         SYMBOL        counter
  X:00E8H         SYMBOL        hall_count
  X:00E9H         SYMBOL        hall_last_count
  -------         ENDDO         
  C:2895H         LINE#         14
  C:2895H         LINE#         19
  C:289EH         LINE#         20
  C:28A6H         LINE#         21
  C:28A9H         LINE#         22
  C:28B1H         LINE#         23
  C:28B7H         LINE#         24
  C:28BAH         LINE#         25
  C:28BAH         LINE#         26
  C:28BAH         LINE#         27
  C:28BCH         LINE#         29
  C:28C5H         LINE#         30
  C:28C8H         LINE#         31
  C:28CCH         LINE#         32
  C:28CCH         LINE#         33
  C:28CCH         LINE#         34
  C:28D1H         LINE#         35
  C:28D7H         LINE#         36
  C:28D7H         LINE#         37
  -------         ENDPROC       _?SYS_HALL_DRV
  -------         PROC          _?SYS_GET_HALLEVENT
  -------         DO            
  i:0000H         SYMBOL        a
  -------         ENDDO         
BL51 BANKED LINKER/LOCATER V6.22                                                      09/19/2025  10:17:04  PAGE 21


  C:2CEBH         LINE#         39
  C:2CEDH         LINE#         41
  C:2CF5H         LINE#         42
  C:2CF7H         LINE#         43
  C:2CF7H         LINE#         44
  -------         ENDPROC       _?SYS_GET_HALLEVENT
  -------         PROC          HALLINIT
  C:2BEDH         LINE#         46
  C:2BEDH         LINE#         47
  C:2BEDH         LINE#         48
  C:2BFBH         LINE#         49
  C:2C09H         LINE#         50
  -------         ENDPROC       HALLINIT
  -------         PROC          GETHALLACT
  -------         DO            
  D:0007H         SYMBOL        a
  -------         ENDDO         
  C:2DAFH         LINE#         52
  C:2DAFH         LINE#         53
  C:2DAFH         LINE#         54
  C:2DB1H         LINE#         55
  C:2DB4H         LINE#         56
  C:2DB4H         LINE#         57
  -------         ENDPROC       GETHALLACT
  -------         ENDMOD        HALL

  -------         MODULE        KEY
  C:0000H         SYMBOL        _ICE_DUMMY_
  D:0080H         PUBLIC        P0
  D:0090H         PUBLIC        P1
  D:00A0H         PUBLIC        P2
  D:00B0H         PUBLIC        P3
  D:00C0H         PUBLIC        P4
  D:00C8H         PUBLIC        P5
  D:00E8H         PUBLIC        P6
  D:00F8H         PUBLIC        P7
  D:00A8H         PUBLIC        IE
  X:00D4H         PUBLIC        sys_keyEvent
  D:00B8H         PUBLIC        IP
  D:00D8H         PUBLIC        CCON
  C:2CFAH         PUBLIC        _?sys_get_keyEvent
  D:0098H         PUBLIC        SCON
  D:0088H         PUBLIC        TCON
  C:19A5H         PUBLIC        _?sys_key_drv
  C:2C0AH         PUBLIC        KeyInit
  B:00B0H.2       PUBLIC        IO_Key1
  B:00B0H.3       PUBLIC        IO_Key2
  B:0090H.7       PUBLIC        IO_Key3
  C:291AH         PUBLIC        _GetKeyAct
  X:00D5H         PUBLIC        sys_Key
  D:00D0H         PUBLIC        PSW
  -------         PROC          _?SYS_KEY_DRV
  -------         DO            
  i:0000H         SYMBOL        i
  X:00D3H         SYMBOL        counter
  -------         ENDDO         
  C:19A5H         LINE#         28
BL51 BANKED LINKER/LOCATER V6.22                                                      09/19/2025  10:17:04  PAGE 22


  C:19A7H         LINE#         31
  C:19B0H         LINE#         32
  C:19B9H         LINE#         33
  C:19C2H         LINE#         34
  C:19CDH         LINE#         35
  C:19D0H         LINE#         36
  C:19E2H         LINE#         37
  C:1A00H         LINE#         38
  C:1A19H         LINE#         39
  C:1A35H         LINE#         40
  C:1A39H         LINE#         41
  C:1A39H         LINE#         42
  C:1A3BH         LINE#         44
  C:1A5CH         LINE#         45
  C:1A72H         LINE#         46
  C:1A77H         LINE#         47
  C:1A77H         LINE#         48
  C:1A77H         LINE#         49
  C:1AAAH         LINE#         50
  C:1AC5H         LINE#         51
  C:1AC9H         LINE#         52
  C:1AC9H         LINE#         53
  -------         ENDPROC       _?SYS_KEY_DRV
  -------         PROC          _?SYS_GET_KEYEVENT
  -------         DO            
  i:0000H         SYMBOL        a
  -------         ENDDO         
  C:2CFAH         LINE#         55
  C:2CFCH         LINE#         57
  C:2D04H         LINE#         58
  C:2D06H         LINE#         59
  C:2D06H         LINE#         60
  -------         ENDPROC       _?SYS_GET_KEYEVENT
  -------         PROC          KEYINIT
  C:2C0AH         LINE#         62
  C:2C0AH         LINE#         63
  C:2C0AH         LINE#         66
  C:2C18H         LINE#         67
  C:2C26H         LINE#         68
  -------         ENDPROC       KEYINIT
  -------         PROC          _GETKEYACT
  D:0007H         SYMBOL        Key
  -------         DO            
  D:0006H         SYMBOL        a
  -------         ENDDO         
  C:291AH         LINE#         70
  C:291AH         LINE#         71
  C:291AH         LINE#         72
  C:2924H         LINE#         73
  C:293FH         LINE#         74
  C:2954H         LINE#         75
  C:2957H         LINE#         76
  C:2957H         LINE#         77
  C:2959H         LINE#         78
  -------         ENDPROC       _GETKEYACT
  -------         ENDMOD        KEY

BL51 BANKED LINKER/LOCATER V6.22                                                      09/19/2025  10:17:04  PAGE 23


  -------         MODULE        SYS
  C:0000H         SYMBOL        _ICE_DUMMY_
  X:0000H         PUBLIC        count_1mS
  B:00D8H.2       PUBLIC        CCF2
  D:0080H         PUBLIC        P0
  B:0020H.1       PUBLIC        flag_1S
  D:0090H         PUBLIC        P1
  D:00A0H         PUBLIC        P2
  D:00B0H         PUBLIC        P3
  D:00C0H         PUBLIC        P4
  X:0001H         PUBLIC        T1
  D:00C8H         PUBLIC        P5
  X:0003H         PUBLIC        T2
  B:00A8H.7       PUBLIC        EA
  D:00E8H         PUBLIC        P6
  D:00F8H         PUBLIC        P7
  D:005AH         PUBLIC        IrDatNum
  B:00D8H.7       PUBLIC        CF
  B:0020H.2       PUBLIC        Ir_Coder
  B:0020H.3       PUBLIC        Ir_RxBusy
  D:00A8H         PUBLIC        IE
  B:0020H.4       PUBLIC        Ir_TxBusy
  X:0005H         PUBLIC        userfunccall
  D:00FAH         PUBLIC        CCAP0H
  D:00FBH         PUBLIC        CCAP1H
  C:2450H         PUBLIC        sys_task_Ir
  D:005BH         PUBLIC        IrCount_j
  D:005CH         PUBLIC        IrRx_count
  D:005DH         PUBLIC        IrProtocol
  D:00EAH         PUBLIC        CCAP0L
  D:005EH         PUBLIC        IrTx_count
  D:00EBH         PUBLIC        CCAP1L
  D:00DAH         PUBLIC        CCAPM0
  D:00DBH         PUBLIC        CCAPM1
  D:005FH         PUBLIC        MainLoops
  D:00B8H         PUBLIC        IP
  B:00D0H.7       PUBLIC        CY
  B:0020H.5       PUBLIC        flag_10mS
  D:00D8H         PUBLIC        CCON
  C:2D7CH         PUBLIC        GetBeepTimer
  C:272BH         PUBLIC        sys_Timer0_isr
  C:25E3H         PUBLIC        _SetEventCallBack
  C:2DB5H         PUBLIC        MySTC_Init
  C:295AH         PUBLIC        sys_task_100mS
  X:0029H         PUBLIC        ModBus_interval_time
  C:2DC4H         PUBLIC        _?ret0func
  C:26D8H         PUBLIC        GetUltraSonic
  X:002AH         PUBLIC        count_10mS
  X:002BH         PUBLIC        stcDrivers
  C:2D85H         PUBLIC        _SetBeepTimer
  B:0020H.6       PUBLIC        flag_IrRxFinished
  D:0098H         PUBLIC        SCON
  C:2CBCH         PUBLIC        _SetCCP0
  C:2999H         PUBLIC        MySTC_OS
  D:0089H         PUBLIC        TMOD
  D:0088H         PUBLIC        TCON
  B:0020H.7       PUBLIC        flag_Ir
BL51 BANKED LINKER/LOCATER V6.22                                                      09/19/2025  10:17:04  PAGE 24


  B:00B0H.5       PUBLIC        P35
  D:0063H         PUBLIC        IrRxNum
  X:0061H         PUBLIC        SysPerformance
  D:008EH         PUBLIC        AUXR
  C:20C6H         PUBLIC        sys_CCP_isr
  C:1CF0H         PUBLIC        sys_task_1mS
  B:00A8H.1       PUBLIC        ET0
  C:2DC7H         PUBLIC        ClrBeepPin
  D:008CH         PUBLIC        TH0
  B:0021H.0       PUBLIC        flag_100mS
  X:0066H         PUBLIC        distance
  D:008AH         PUBLIC        TL0
  D:0064H         PUBLIC        PollingMisses
  X:0068H         PUBLIC        sys_BP
  B:0088H.4       PUBLIC        TR0
  C:2ACCH         PUBLIC        sys_task_1S
  C:2D95H         PUBLIC        GetSysPerformance
  B:0021H.1       PUBLIC        matchModBus
  X:006EH         PUBLIC        count_100mS
  B:0021H.2       PUBLIC        Ir_BitBusy
  D:0065H         PUBLIC        IrDat_count
  D:0066H         PUBLIC        IrMute_count
  B:0021H.3       PUBLIC        newFrame1
  C:27C4H         PUBLIC        sys_Timer0_Init
  B:0021H.4       PUBLIC        newFrame2
  D:0067H         PUBLIC        IrDataPc
  C:2DCAH         PUBLIC        _?nullfunc
  B:0021H.5       PUBLIC        flag_1mS
  B:0021H.6       PUBLIC        newUS
  D:008FH         PUBLIC        INT_CLKO
  C:2213H         PUBLIC        sys_task_10mS
  D:00D0H         PUBLIC        PSW
  B:00D8H.0       PUBLIC        CCF0
  B:00B0H.4       PUBLIC        Beep
  B:00D8H.1       PUBLIC        CCF1
  -------         PROC          _?NULLFUNC
  C:2DCAH         LINE#         13
  -------         ENDPROC       _?NULLFUNC
  -------         PROC          _?RET0FUNC
  C:2DC4H         LINE#         14
  -------         ENDPROC       _?RET0FUNC
  -------         PROC          SYS_TIMER0_INIT
  C:27C4H         LINE#         96
  C:27C4H         LINE#         97
  C:27C7H         LINE#         98
  C:27CAH         LINE#         99
  C:27E0H         LINE#         100
  C:2806H         LINE#         101
  C:2808H         LINE#         102
  C:280AH         LINE#         103
  -------         ENDPROC       SYS_TIMER0_INIT
  -------         PROC          SYS_TIMER0_ISR
  -------         DO            
  D:0059H         SYMBOL        i
  -------         ENDDO         
  C:272BH         LINE#         105
  C:272FH         LINE#         107
BL51 BANKED LINKER/LOCATER V6.22                                                      09/19/2025  10:17:04  PAGE 25


  C:2732H         LINE#         108
  C:2735H         LINE#         109
  C:273AH         LINE#         110
  C:273CH         LINE#         111
  C:273CH         LINE#         112
  C:2742H         LINE#         113
  C:2748H         LINE#         114
  C:274BH         LINE#         115
  C:274DH         LINE#         116
  C:2750H         LINE#         117
  C:2754H         LINE#         118
  C:2756H         LINE#         119
  C:2759H         LINE#         120
  C:275BH         LINE#         122
  C:275EH         LINE#         123
  C:2760H         LINE#         124
  C:2765H         LINE#         125
  C:2765H         LINE#         126
  C:2767H         LINE#         128
  C:2770H         LINE#         129
  C:2772H         LINE#         130
  C:2778H         LINE#         131
  C:2778H         LINE#         132
  C:2778H         LINE#         133
  C:2778H         LINE#         134
  -------         ENDPROC       SYS_TIMER0_ISR
  -------         PROC          GETULTRASONIC
  -------         DO            
  D:001AH         SYMBOL        a
  -------         ENDDO         
  C:26D8H         LINE#         138
  C:26D8H         LINE#         139
  C:26D8H         LINE#         140
  C:26DBH         LINE#         141
  C:26DDH         LINE#         142
  C:26ECH         LINE#         143
  C:2722H         LINE#         144
  C:2722H         LINE#         145
  C:272AH         LINE#         146
  -------         ENDPROC       GETULTRASONIC
  -------         PROC          GETBEEPTIMER
  C:2D7CH         LINE#         148
  C:2D7CH         LINE#         149
  C:2D84H         LINE#         150
  -------         ENDPROC       GETBEEPTIMER
  -------         PROC          _SETBEEPTIMER
  D:0006H         SYMBOL        a
  C:2D85H         LINE#         152
  C:2D85H         LINE#         153
  C:2D8DH         LINE#         154
  -------         ENDPROC       _SETBEEPTIMER
  -------         PROC          _SETCCP0
  D:0006H         SYMBOL        step
  D:0004H         SYMBOL        next
  C:2CBCH         LINE#         156
  C:2CBCH         LINE#         157
  C:2CC4H         LINE#         158
BL51 BANKED LINKER/LOCATER V6.22                                                      09/19/2025  10:17:04  PAGE 26


  C:2CCCH         LINE#         159
  -------         ENDPROC       _SETCCP0
  -------         PROC          CLRBEEPPIN
  C:2DC7H         LINE#         161
  C:2DC7H         LINE#         162
  C:2DC9H         LINE#         163
  -------         ENDPROC       CLRBEEPPIN
  -------         PROC          SYS_CCP_ISR
  -------         DO            
  B:0020H.0       SYMBOL        a
  -------         ENDDO         
  C:20C6H         LINE#         165
  C:20D9H         LINE#         167
  C:20E0H         LINE#         168
  C:20E7H         LINE#         169
  C:20EAH         LINE#         170
  C:20ECH         LINE#         171
  C:20FCH         LINE#         172
  C:2103H         LINE#         173
  C:2106H         LINE#         174
  C:2108H         LINE#         175
  C:210AH         LINE#         177
  C:211EH         LINE#         178
  C:2121H         LINE#         179
  C:2123H         LINE#         180
  C:2125H         LINE#         181
  C:2127H         LINE#         183
  C:2127H         LINE#         184
  C:212AH         LINE#         185
  C:212CH         LINE#         186
  C:2136H         LINE#         187
  C:2138H         LINE#         188
  C:2141H         LINE#         189
  C:2144H         LINE#         190
  C:2156H         LINE#         191
  C:2158H         LINE#         193
  C:215AH         LINE#         194
  C:215DH         LINE#         195
  C:215DH         LINE#         196
  C:215DH         LINE#         197
  -------         ENDPROC       SYS_CCP_ISR
  -------         PROC          MYSTC_INIT
  C:2DB5H         LINE#         199
  C:2DB5H         LINE#         200
  C:2DB8H         LINE#         201
  C:2DBAH         LINE#         202
  -------         ENDPROC       MYSTC_INIT
  -------         PROC          SYS_TASK_IR
  -------         DO            
  D:0007H         SYMBOL        a
  -------         ENDDO         
  C:2450H         LINE#         204
  C:2450H         LINE#         205
  C:2450H         LINE#         206
  C:2466H         LINE#         207
  C:246DH         LINE#         208
  C:2470H         LINE#         209
BL51 BANKED LINKER/LOCATER V6.22                                                      09/19/2025  10:17:04  PAGE 27


  C:2473H         LINE#         210
  C:2489H         LINE#         211
  C:2499H         LINE#         212
  C:24A1H         LINE#         213
  C:24A4H         LINE#         214
  C:24A6H         LINE#         216
  C:24BCH         LINE#         217
  C:24D0H         LINE#         218
  C:24D0H         LINE#         219
  C:24D2H         LINE#         220
  C:24D5H         LINE#         222
  C:24D5H         LINE#         224
  C:24D7H         LINE#         225
  C:24DAH         LINE#         226
  C:24DAH         LINE#         227
  -------         ENDPROC       SYS_TASK_IR
  -------         PROC          SYS_TASK_1MS
  C:1CF0H         LINE#         229
  C:1CF0H         LINE#         230
  C:1CF8H         LINE#         231
  C:1CFBH         LINE#         232
  C:1CFDH         LINE#         233
  C:1D05H         LINE#         234
  C:1D08H         LINE#         235
  C:1D0AH         LINE#         236
  C:1D12H         LINE#         237
  C:1D15H         LINE#         238
  C:1D17H         LINE#         239
  C:1D17H         LINE#         240
  C:1D17H         LINE#         241
  C:1D17H         LINE#         242
  C:1D23H         LINE#         243
  C:1D2FH         LINE#         244
  C:1D3BH         LINE#         245
  C:1D47H         LINE#         246
  C:1D53H         LINE#         247
  C:1D5FH         LINE#         248
  C:1D7AH         LINE#         249
  C:1D89H         LINE#         250
  C:1D95H         LINE#         251
  C:1D97H         LINE#         252
  C:1D97H         LINE#         253
  C:1DA0H         LINE#         254
  C:1DA5H         LINE#         255
  C:1DB4H         LINE#         256
  C:1DB6H         LINE#         257
  C:1DB6H         LINE#         258
  C:1DB8H         LINE#         260
  C:1DC7H         LINE#         261
  C:1DD3H         LINE#         262
  C:1DD5H         LINE#         263
  C:1DD5H         LINE#         264
  C:1DD5H         LINE#         265
  -------         ENDPROC       SYS_TASK_1MS
  -------         PROC          SYS_TASK_10MS
  C:2213H         LINE#         268
  C:2213H         LINE#         269
BL51 BANKED LINKER/LOCATER V6.22                                                      09/19/2025  10:17:04  PAGE 28


  C:221FH         LINE#         270
  C:222BH         LINE#         271
  C:2237H         LINE#         272
  C:2243H         LINE#         273
  C:225EH         LINE#         274
  C:2279H         LINE#         275
  C:2294H         LINE#         276
  C:2297H         LINE#         277
  C:2299H         LINE#         278
  C:22A5H         LINE#         279
  C:22A5H         LINE#         280
  -------         ENDPROC       SYS_TASK_10MS
  -------         PROC          SYS_TASK_100MS
  C:295AH         LINE#         282
  C:295AH         LINE#         283
  C:2966H         LINE#         284
  C:2981H         LINE#         285
  C:298DH         LINE#         286
  -------         ENDPROC       SYS_TASK_100MS
  -------         PROC          SYS_TASK_1S
  C:2ACCH         LINE#         289
  C:2ACCH         LINE#         290
  C:2ADAH         LINE#         291
  C:2AE0H         LINE#         292
  C:2AE9H         LINE#         293
  C:2AEBH         LINE#         294
  -------         ENDPROC       SYS_TASK_1S
  -------         PROC          MYSTC_OS
  C:2999H         LINE#         297
  C:2999H         LINE#         298
  C:29A1H         LINE#         299
  C:29A9H         LINE#         300
  C:29B1H         LINE#         301
  C:29B9H         LINE#         302
  C:29C1H         LINE#         303
  C:29D6H         LINE#         306
  -------         ENDPROC       MYSTC_OS
  -------         PROC          _SETEVENTCALLBACK
  D:0007H         SYMBOL        event
  D:0008H         SYMBOL        user_callback
  C:25E3H         LINE#         308
  C:25E9H         LINE#         309
  C:261AH         LINE#         310
  C:261DH         LINE#         311
  C:261FH         LINE#         312
  C:2622H         LINE#         313
  C:2624H         LINE#         314
  C:2627H         LINE#         315
  C:2629H         LINE#         316
  C:262CH         LINE#         317
  C:262EH         LINE#         318
  C:2631H         LINE#         319
  C:2633H         LINE#         320
  C:2636H         LINE#         321
  C:2638H         LINE#         322
  C:263BH         LINE#         323
  C:263DH         LINE#         324
BL51 BANKED LINKER/LOCATER V6.22                                                      09/19/2025  10:17:04  PAGE 29


  C:2640H         LINE#         325
  C:2642H         LINE#         326
  C:2645H         LINE#         327
  C:2647H         LINE#         328
  C:264AH         LINE#         329
  C:264CH         LINE#         330
  C:264FH         LINE#         331
  C:2651H         LINE#         332
  C:265FH         LINE#         333
  C:265FH         LINE#         334
  C:265FH         LINE#         335
  C:265FH         LINE#         336
  -------         ENDPROC       _SETEVENTCALLBACK
  -------         PROC          GETSYSPERFORMANCE
  C:2D95H         LINE#         338
  C:2D95H         LINE#         339
  C:2D9BH         LINE#         340
  -------         ENDPROC       GETSYSPERFORMANCE
  -------         ENDMOD        SYS

  -------         MODULE        VIB
  C:0000H         SYMBOL        _ICE_DUMMY_
  D:0080H         PUBLIC        P0
  D:0090H         PUBLIC        P1
  D:00A0H         PUBLIC        P2
  D:00B0H         PUBLIC        P3
  D:00C0H         PUBLIC        P4
  D:00C8H         PUBLIC        P5
  D:00E8H         PUBLIC        P6
  D:00F8H         PUBLIC        P7
  D:00A8H         PUBLIC        IE
  X:00EBH         PUBLIC        SV_Event
  C:2D09H         PUBLIC        _?sys_get_SVEvent
  C:2D45H         PUBLIC        _?sys_SV_drv
  D:00B8H         PUBLIC        IP
  B:00A0H.4       PUBLIC        IO_SV
  D:00D8H         PUBLIC        CCON
  D:0098H         PUBLIC        SCON
  D:0088H         PUBLIC        TCON
  C:2C27H         PUBLIC        VibInit
  C:2D18H         PUBLIC        _?GetVibAct
  X:00ECH         PUBLIC        sys_SVEvent
  D:00D0H         PUBLIC        PSW
  -------         PROC          _?SYS_SV_DRV
  C:2D45H         LINE#         14
  C:2D45H         LINE#         15
  C:2D48H         LINE#         16
  C:2D4EH         LINE#         17
  C:2D52H         LINE#         18
  C:2D52H         LINE#         19
  -------         ENDPROC       _?SYS_SV_DRV
  -------         PROC          _?SYS_GET_SVEVENT
  -------         DO            
  i:0000H         SYMBOL        a
  -------         ENDDO         
  C:2D09H         LINE#         21
  C:2D0BH         LINE#         23
BL51 BANKED LINKER/LOCATER V6.22                                                      09/19/2025  10:17:04  PAGE 30


  C:2D13H         LINE#         24
  C:2D15H         LINE#         25
  C:2D15H         LINE#         26
  -------         ENDPROC       _?SYS_GET_SVEVENT
  -------         PROC          VIBINIT
  C:2C27H         LINE#         28
  C:2C27H         LINE#         29
  C:2C27H         LINE#         30
  C:2C35H         LINE#         31
  C:2C43H         LINE#         32
  -------         ENDPROC       VIBINIT
  -------         PROC          _?GETVIBACT
  -------         DO            
  i:0000H         SYMBOL        a
  -------         ENDDO         
  C:2D18H         LINE#         34
  C:2D1AH         LINE#         36
  C:2D22H         LINE#         37
  C:2D24H         LINE#         38
  C:2D24H         LINE#         39
  -------         ENDPROC       _?GETVIBACT
  -------         ENDMOD        VIB

  -------         MODULE        MUSIC
  C:0000H         SYMBOL        _ICE_DUMMY_
  D:0080H         PUBLIC        P0
  D:0090H         PUBLIC        P1
  D:00A0H         PUBLIC        P2
  D:00B0H         PUBLIC        P3
  D:00C0H         PUBLIC        P4
  D:00C8H         PUBLIC        P5
  D:00E8H         PUBLIC        P6
  D:00F8H         PUBLIC        P7
  C:2D27H         PUBLIC        MusicPlayerInit
  D:00A8H         PUBLIC        IE
  C:0EFAH         PUBLIC        _?sys_music_drv
  D:00B8H         PUBLIC        IP
  C:2DBBH         PUBLIC        GetPlayerMode
  X:00C6H         PUBLIC        music
  D:00D8H         PUBLIC        CCON
  C:2B48H         PUBLIC        _SetPlayerMode
  C:201CH         PUBLIC        _PlayTone
  C:2562H         PUBLIC        _SetMusic
  D:0098H         PUBLIC        SCON
  D:0088H         PUBLIC        TCON
  B:0022H.0       PUBLIC        beat_dir
  D:00D0H         PUBLIC        PSW
  -------         PROC          _PLAYTONE
  D:0008H         SYMBOL        tone
  D:0009H         SYMBOL        beatsPM
  D:000AH         SYMBOL        scale
  D:000BH         SYMBOL        beats
  -------         DO            
  D:000CH         SYMBOL        freq
  D:0004H         SYMBOL        playtime
  C:1ACCH         SYMBOL        sound_freq
  -------         ENDDO         
BL51 BANKED LINKER/LOCATER V6.22                                                      09/19/2025  10:17:04  PAGE 31


  C:201CH         LINE#         22
  C:2022H         LINE#         23
  C:2022H         LINE#         34
  C:202BH         LINE#         35
  C:2060H         LINE#         36
  C:2063H         LINE#         37
  C:20A4H         LINE#         38
  C:20A9H         LINE#         39
  C:20BEH         LINE#         40
  C:20C5H         LINE#         41
  C:20C5H         LINE#         42
  -------         ENDPROC       _PLAYTONE
  -------         PROC          _?SYS_MUSIC_DRV
  -------         DO            
  i:0000H         SYMBOL        a
  i:0001H         SYMBOL        b
  X:00C3H         SYMBOL        scale
  X:00C4H         SYMBOL        repeat_pt
  -------         ENDDO         
  C:0EFAH         LINE#         44
  C:0EFEH         LINE#         48
  C:0F1FH         LINE#         49
  C:0F23H         LINE#         50
  C:0F2AH         LINE#         51
  C:0F30H         LINE#         52
  C:0F34H         LINE#         53
  C:0F39H         LINE#         55
  C:0F39H         LINE#         57
  C:0F55H         LINE#         58
  C:0F93H         LINE#         59
  C:0FB2H         LINE#         60
  C:0FC4H         LINE#         61
  C:0FD9H         LINE#         62
  C:0FF0H         LINE#         63
  C:101CH         LINE#         64
  C:103FH         LINE#         65
  C:1047H         LINE#         66
  C:1049H         LINE#         67
  C:1050H         LINE#         68
  C:1050H         LINE#         70
  C:1068H         LINE#         71
  C:1071H         LINE#         72
  C:1093H         LINE#         73
  C:10B0H         LINE#         74
  C:10D1H         LINE#         75
  C:10DFH         LINE#         76
  C:10E1H         LINE#         77
  C:1102H         LINE#         78
  C:1110H         LINE#         79
  C:1113H         LINE#         80
  C:1113H         LINE#         81
  C:1113H         LINE#         82
  C:1113H         LINE#         83
  C:1134H         LINE#         84
  C:1137H         LINE#         85
  C:114AH         LINE#         86
  C:114DH         LINE#         87
BL51 BANKED LINKER/LOCATER V6.22                                                      09/19/2025  10:17:04  PAGE 32


  C:116AH         LINE#         88
  C:1178H         LINE#         89
  C:117BH         LINE#         90
  C:1189H         LINE#         91
  C:118CH         LINE#         92
  C:118CH         LINE#         93
  C:118CH         LINE#         94
  C:11A1H         LINE#         95
  C:11C2H         LINE#         96
  C:11EFH         LINE#         97
  C:11EFH         LINE#         98
  C:11EFH         LINE#         99
  C:11F1H         LINE#         101
  C:11F7H         LINE#         103
  C:11F7H         LINE#         104
  -------         ENDPROC       _?SYS_MUSIC_DRV
  -------         PROC          MUSICPLAYERINIT
  C:2D27H         LINE#         106
  C:2D27H         LINE#         107
  C:2D27H         LINE#         108
  C:2D35H         LINE#         109
  -------         ENDPROC       MUSICPLAYERINIT
  -------         PROC          _SETMUSIC
  D:0007H         SYMBOL        beatsPM
  D:0005H         SYMBOL        tone
  D:000AH         SYMBOL        pt
  D:000DH         SYMBOL        datasize
  D:000FH         SYMBOL        display
  C:2562H         LINE#         111
  C:2568H         LINE#         112
  C:2568H         LINE#         113
  C:2588H         LINE#         114
  C:258FH         LINE#         115
  C:2593H         LINE#         116
  C:2595H         LINE#         117
  C:2595H         LINE#         118
  C:259CH         LINE#         119
  C:25A3H         LINE#         120
  C:25C7H         LINE#         121
  C:25D2H         LINE#         122
  C:25DAH         LINE#         123
  C:25DAH         LINE#         124
  C:25E2H         LINE#         126
  -------         ENDPROC       _SETMUSIC
  -------         PROC          _SETPLAYERMODE
  D:0007H         SYMBOL        play_ctrl
  C:2B48H         LINE#         128
  C:2B48H         LINE#         129
  C:2B6AH         LINE#         130
  C:2B6FH         LINE#         131
  -------         ENDPROC       _SETPLAYERMODE
  -------         PROC          GETPLAYERMODE
  C:2DBBH         LINE#         133
  C:2DBBH         LINE#         134
  C:2DC0H         LINE#         135
  -------         ENDPROC       GETPLAYERMODE
  -------         ENDMOD        MUSIC
BL51 BANKED LINKER/LOCATER V6.22                                                      09/19/2025  10:17:04  PAGE 33



  -------         MODULE        DS1302
  C:0000H         SYMBOL        _ICE_DUMMY_
  D:0080H         PUBLIC        P0
  D:0090H         PUBLIC        P1
  D:00A0H         PUBLIC        P2
  D:00B0H         PUBLIC        P3
  D:00C0H         PUBLIC        P4
  C:2C5FH         PUBLIC        _DS1302WriteByte
  D:00C8H         PUBLIC        P5
  D:00E8H         PUBLIC        P6
  D:00F8H         PUBLIC        P7
  D:00A8H         PUBLIC        IE
  D:00B8H         PUBLIC        IP
  X:00DFH         PUBLIC        RTCtime
  B:00C8H.4       PUBLIC        RTC_io
  D:00D8H         PUBLIC        CCON
  B:0090H.6       PUBLIC        RTC_rst
  X:00E6H         PUBLIC        flag_newRTC
  D:0098H         PUBLIC        SCON
  D:0088H         PUBLIC        TCON
  C:2D9CH         PUBLIC        RTC_Read
  C:216EH         PUBLIC        _?sys_DS1302_drv
  C:2CAAH         PUBLIC        _NVM_Read
  C:2C91H         PUBLIC        RTC_Write
  C:2AB1H         PUBLIC        _DS1302Read
  C:2AF7H         PUBLIC        _NVM_Write
  C:2BB3H         PUBLIC        _DS1302Write
  C:2C78H         PUBLIC        DS1302ReadByte
  C:1BF2H         PUBLIC        DS1302Init
  B:0090H.5       PUBLIC        RTC_sclk
  D:00D0H         PUBLIC        PSW
  -------         PROC          _DS1302WRITEBYTE
  D:0007H         SYMBOL        dat
  -------         DO            
  D:0006H         SYMBOL        i
  -------         ENDDO         
  C:2C5FH         LINE#         52
  C:2C5FH         LINE#         53
  C:2C5FH         LINE#         54
  C:2C61H         LINE#         55
  C:2C63H         LINE#         56
  C:2C67H         LINE#         57
  C:2C68H         LINE#         58
  C:2C69H         LINE#         59
  C:2C6AH         LINE#         60
  C:2C6CH         LINE#         61
  C:2C6DH         LINE#         62
  C:2C71H         LINE#         63
  C:2C73H         LINE#         64
  C:2C77H         LINE#         65
  -------         ENDPROC       _DS1302WRITEBYTE
  -------         PROC          DS1302READBYTE
  -------         DO            
  D:0006H         SYMBOL        i
  D:0007H         SYMBOL        dat
  -------         ENDDO         
BL51 BANKED LINKER/LOCATER V6.22                                                      09/19/2025  10:17:04  PAGE 34


  C:2C78H         LINE#         67
  C:2C78H         LINE#         68
  C:2C78H         LINE#         69
  C:2C7AH         LINE#         70
  C:2C7BH         LINE#         71
  C:2C7FH         LINE#         72
  C:2C85H         LINE#         73
  C:2C87H         LINE#         74
  C:2C88H         LINE#         75
  C:2C89H         LINE#         76
  C:2C8AH         LINE#         77
  C:2C8CH         LINE#         78
  C:2C90H         LINE#         79
  C:2C90H         LINE#         80
  -------         ENDPROC       DS1302READBYTE
  -------         PROC          L?0042
  -------         ENDPROC       L?0042
  -------         PROC          _DS1302READ
  D:0007H         SYMBOL        cmd
  -------         DO            
  D:0007H         SYMBOL        dat
  -------         ENDDO         
  C:2AB1H         LINE#         82
  C:2AB1H         LINE#         83
  C:2AB1H         LINE#         85
  C:2AB3H         LINE#         86
  C:2AB4H         LINE#         87
  C:2AB5H         LINE#         88
  C:2AB6H         LINE#         89
  C:2AB8H         LINE#         90
  C:2AB9H         LINE#         91
  C:2ABAH         LINE#         92
  C:2ABBH         LINE#         93
  C:2ABDH         LINE#         94
  C:2ABEH         LINE#         95
  C:2AC1H         LINE#         96
  C:2AC4H         LINE#         97
  C:2AC6H         LINE#         98
  C:2AC7H         LINE#         99
  C:2AC8H         LINE#         100
  C:2AC9H         LINE#         101
  C:2ACBH         LINE#         102
  C:2ACBH         LINE#         103
  -------         ENDPROC       _DS1302READ
  -------         PROC          L?0043
  -------         ENDPROC       L?0043
  -------         PROC          _DS1302WRITE
  D:0007H         SYMBOL        cmd
  D:0005H         SYMBOL        dat
  C:2BB3H         LINE#         105
  C:2BB3H         LINE#         106
  C:2BB5H         LINE#         107
  C:2BB6H         LINE#         108
  C:2BB7H         LINE#         109
  C:2BB8H         LINE#         110
  C:2BBAH         LINE#         111
  C:2BBBH         LINE#         112
BL51 BANKED LINKER/LOCATER V6.22                                                      09/19/2025  10:17:04  PAGE 35


  C:2BBCH         LINE#         113
  C:2BBDH         LINE#         114
  C:2BBFH         LINE#         115
  C:2BC0H         LINE#         116
  C:2BC3H         LINE#         117
  C:2BC8H         LINE#         118
  C:2BCAH         LINE#         119
  C:2BCBH         LINE#         120
  C:2BCCH         LINE#         121
  C:2BCDH         LINE#         122
  C:2BCFH         LINE#         123
  -------         ENDPROC       _DS1302WRITE
  -------         PROC          RTC_READ
  C:2D9CH         LINE#         125
  C:2D9CH         LINE#         126
  C:2DA2H         LINE#         127
  -------         ENDPROC       RTC_READ
  -------         PROC          RTC_WRITE
  D:000FH         SYMBOL        t
  C:2C91H         LINE#         129
  C:2C91H         LINE#         130
  C:2CA4H         LINE#         131
  C:2CA9H         LINE#         132
  -------         ENDPROC       RTC_WRITE
  -------         PROC          _NVM_READ
  D:0007H         SYMBOL        NVM_addr
  C:2CAAH         LINE#         134
  C:2CAAH         LINE#         135
  C:2CB9H         LINE#         136
  C:2CBBH         LINE#         137
  -------         ENDPROC       _NVM_READ
  -------         PROC          _NVM_WRITE
  D:0004H         SYMBOL        NVM_addr
  D:0003H         SYMBOL        NVM_data
  C:2AF7H         LINE#         139
  C:2AFBH         LINE#         140
  C:2B01H         LINE#         141
  C:2B08H         LINE#         142
  C:2B13H         LINE#         143
  C:2B1AH         LINE#         144
  C:2B1DH         LINE#         145
  C:2B1DH         LINE#         146
  C:2B1FH         LINE#         147
  -------         ENDPROC       _NVM_WRITE
  -------         PROC          _?SYS_DS1302_DRV
  -------         DO            
  X:00DEH         SYMBOL        count100mS
  i:0000H         SYMBOL        a
  -------         ENDDO         
  C:216EH         LINE#         149
  C:2170H         LINE#         152
  C:2176H         LINE#         153
  C:217FH         LINE#         154
  C:2189H         LINE#         155
  C:218DH         LINE#         156
  C:2196H         LINE#         157
  C:219BH         LINE#         158
BL51 BANKED LINKER/LOCATER V6.22                                                      09/19/2025  10:17:04  PAGE 36


  C:219EH         LINE#         159
  C:219EH         LINE#         160
  C:219EH         LINE#         161
  C:21A4H         LINE#         162
  C:21AEH         LINE#         163
  C:21B8H         LINE#         164
  C:21B8H         LINE#         165
  C:21B8H         LINE#         166
  C:21BAH         LINE#         167
  C:21C7H         LINE#         168
  C:21C9H         LINE#         169
  C:21CEH         LINE#         170
  C:21D5H         LINE#         171
  C:21DFH         LINE#         172
  C:21E4H         LINE#         173
  C:21E9H         LINE#         174
  C:21F1H         LINE#         175
  C:21F9H         LINE#         176
  C:2201H         LINE#         177
  C:2209H         LINE#         178
  C:2210H         LINE#         179
  C:2210H         LINE#         180
  -------         ENDPROC       _?SYS_DS1302_DRV
  -------         PROC          DS1302INIT
  D:0008H         SYMBOL        t
  C:1BF2H         LINE#         182
  C:1BF2H         LINE#         183
  C:1BF2H         LINE#         184
  C:1BFCH         LINE#         185
  C:1C03H         LINE#         186
  C:1C03H         LINE#         187
  C:1C03H         LINE#         188
  C:1C09H         LINE#         189
  C:1C11H         LINE#         190
  C:1C19H         LINE#         192
  C:1C20H         LINE#         194
  C:1CA3H         LINE#         202
  C:1CB9H         LINE#         203
  C:1CC0H         LINE#         204
  C:1CD3H         LINE#         205
  C:1CD3H         LINE#         206
  C:1CDAH         LINE#         207
  C:1CE1H         LINE#         208
  C:1CEFH         LINE#         209
  -------         ENDPROC       DS1302INIT
  -------         ENDMOD        DS1302

  -------         MODULE        UART2
  C:0000H         SYMBOL        _ICE_DUMMY_
  D:001DH         PUBLIC        ModBus_Interval_Min
  D:0080H         PUBLIC        P0
  C:11FCH         PUBLIC        Uart2_isr
  D:0090H         PUBLIC        P1
  D:00A0H         PUBLIC        P2
  D:00B0H         PUBLIC        P3
  D:00C0H         PUBLIC        P4
  D:00C8H         PUBLIC        P5
BL51 BANKED LINKER/LOCATER V6.22                                                      09/19/2025  10:17:04  PAGE 37


  D:00E8H         PUBLIC        P6
  D:00F8H         PUBLIC        P7
  D:00BAH         PUBLIC        P_SW2
  D:00A8H         PUBLIC        IE
  D:00DBH         PUBLIC        CCAPM1
  D:00B8H         PUBLIC        IP
  C:2DCBH         PUBLIC        _?nullfunc0
  D:00D8H         PUBLIC        CCON
  C:2A3CH         PUBLIC        _SetUart2Rxd
  B:0090H.0       PUBLIC        P10
  B:0090H.1       PUBLIC        P11
  D:0098H         PUBLIC        SCON
  D:0088H         PUBLIC        TCON
  D:00AFH         PUBLIC        IE2
  D:008EH         PUBLIC        AUXR
  C:2D5FH         PUBLIC        GetUart2TxStatus
  D:00D6H         PUBLIC        T2H
  B:00B0H.7       PUBLIC        M485_TxEn
  D:00D7H         PUBLIC        T2L
  C:2A6DH         PUBLIC        _Uart2Print
  D:009BH         PUBLIC        S2BUF
  D:009AH         PUBLIC        S2CON
  C:1EA8H         PUBLIC        _Uart2Init
  X:00ADH         PUBLIC        Uart2usage
  C:2D36H         PUBLIC        _?sys_get_Uart2RxdEvent
  X:00AEH         PUBLIC        com2
  D:00D0H         PUBLIC        PSW
  -------         PROC          UART2_ISR
  C:11FCH         LINE#         19
  C:1219H         LINE#         20
  C:121EH         LINE#         21
  C:1221H         LINE#         22
  C:1255H         LINE#         24
  C:125AH         LINE#         25
  C:1262H         LINE#         26
  C:1262H         LINE#         27
  C:1262H         LINE#         29
  C:126AH         LINE#         30
  C:126DH         LINE#         31
  C:1270H         LINE#         32
  C:1272H         LINE#         33
  C:1279H         LINE#         34
  C:127BH         LINE#         35
  C:127BH         LINE#         36
  C:1286H         LINE#         37
  C:129AH         LINE#         38
  C:12AEH         LINE#         39
  C:12BDH         LINE#         40
  C:12CBH         LINE#         41
  C:12FDH         LINE#         42
  C:130BH         LINE#         43
  C:130BH         LINE#         44
  C:1311H         LINE#         45
  C:1314H         LINE#         47
  C:1328H         LINE#         48
  C:133CH         LINE#         49
  C:134BH         LINE#         50
BL51 BANKED LINKER/LOCATER V6.22                                                      09/19/2025  10:17:04  PAGE 38


  C:1359H         LINE#         51
  C:1391H         LINE#         52
  C:139FH         LINE#         53
  C:139FH         LINE#         55
  C:13B4H         LINE#         56
  C:13BAH         LINE#         57
  C:13BCH         LINE#         58
  C:13BCH         LINE#         59
  C:13BCH         LINE#         60
  C:13BCH         LINE#         61
  -------         ENDPROC       UART2_ISR
  -------         PROC          _?SYS_GET_UART2RXDEVENT
  -------         DO            
  i:0000H         SYMBOL        a
  -------         ENDDO         
  C:2D36H         LINE#         63
  C:2D38H         LINE#         65
  C:2D40H         LINE#         66
  C:2D42H         LINE#         67
  C:2D42H         LINE#         68
  -------         ENDPROC       _?SYS_GET_UART2RXDEVENT
  -------         PROC          _?NULLFUNC0
  C:2DCBH         LINE#         70
  -------         ENDPROC       _?NULLFUNC0
  -------         PROC          _UART2INIT
  D:0008H         SYMBOL        band
  D:000CH         SYMBOL        Uart2mode
  C:1EA8H         LINE#         72
  C:1EB0H         LINE#         73
  C:1EB0H         LINE#         76
  C:1EB6H         LINE#         77
  C:1EBAH         LINE#         78
  C:1EBDH         LINE#         79
  C:1EC3H         LINE#         80
  C:1ED1H         LINE#         81
  C:1ED4H         LINE#         82
  C:1ED6H         LINE#         83
  C:1ED8H         LINE#         84
  C:1EDAH         LINE#         86
  C:1EDCH         LINE#         87
  C:1EF0H         LINE#         88
  C:1EF7H         LINE#         89
  C:1EFDH         LINE#         90
  C:1EFDH         LINE#         92
  C:1F00H         LINE#         93
  C:1F1FH         LINE#         94
  C:1F4EH         LINE#         95
  C:1F51H         LINE#         96
  C:1F54H         LINE#         97
  C:1F62H         LINE#         98
  -------         ENDPROC       _UART2INIT
  -------         PROC          _SETUART2RXD
  D:0001H         SYMBOL        RxdPt
  D:0004H         SYMBOL        Nmax
  D:000DH         SYMBOL        matchhead
  D:0010H         SYMBOL        matchheadsize
  C:2A3CH         LINE#         100
BL51 BANKED LINKER/LOCATER V6.22                                                      09/19/2025  10:17:04  PAGE 39


  C:2A3CH         LINE#         101
  C:2A47H         LINE#         102
  C:2A4DH         LINE#         103
  C:2A57H         LINE#         104
  C:2A65H         LINE#         105
  C:2A67H         LINE#         106
  C:2A6CH         LINE#         107
  -------         ENDPROC       _SETUART2RXD
  -------         PROC          _UART2PRINT
  D:0001H         SYMBOL        pt
  D:0004H         SYMBOL        num
  C:2A6DH         LINE#         109
  C:2A6DH         LINE#         110
  C:2A73H         LINE#         111
  C:2A73H         LINE#         112
  C:2A7BH         LINE#         114
  C:2A86H         LINE#         115
  C:2A8BH         LINE#         116
  C:2A91H         LINE#         117
  C:2A95H         LINE#         119
  C:2A98H         LINE#         120
  C:2A9BH         LINE#         121
  C:2A9BH         LINE#         122
  C:2A9DH         LINE#         123
  -------         ENDPROC       _UART2PRINT
  -------         PROC          GETUART2TXSTATUS
  C:2D5FH         LINE#         125
  C:2D5FH         LINE#         126
  C:2D67H         LINE#         127
  C:2D69H         LINE#         128
  -------         ENDPROC       GETUART2TXSTATUS
  -------         ENDMOD        UART2

  -------         MODULE        ?C?COPY
  C:08D0H         PUBLIC        ?C?COPY
  -------         ENDMOD        ?C?COPY

  -------         MODULE        ?C?CLDOPTR
  C:08F6H         PUBLIC        ?C?CLDOPTR
  -------         ENDMOD        ?C?CLDOPTR

  -------         MODULE        ?C?CSTOPTR
  C:0923H         PUBLIC        ?C?CSTOPTR
  -------         ENDMOD        ?C?CSTOPTR

  -------         MODULE        ?C?IMUL
  C:0945H         PUBLIC        ?C?IMUL
  -------         ENDMOD        ?C?IMUL

  -------         MODULE        ?C?UIDIV
  C:0957H         PUBLIC        ?C?UIDIV
  -------         ENDMOD        ?C?UIDIV

  -------         MODULE        ?C?SIDIV
  C:09ACH         PUBLIC        ?C?SIDIV
  -------         ENDMOD        ?C?SIDIV

BL51 BANKED LINKER/LOCATER V6.22                                                      09/19/2025  10:17:04  PAGE 40


  -------         MODULE        ?C?IILDX
  C:09E2H         PUBLIC        ?C?IILDX
  -------         ENDMOD        ?C?IILDX

  -------         MODULE        ?C?ILDIX
  C:09F8H         PUBLIC        ?C?ILDIX
  -------         ENDMOD        ?C?ILDIX

  -------         MODULE        ?C?ILDPTR
  C:0A0EH         PUBLIC        ?C?ILDPTR
  -------         ENDMOD        ?C?ILDPTR

  -------         MODULE        ?C?LMUL
  C:0A39H         PUBLIC        ?C?LMUL
  -------         ENDMOD        ?C?LMUL

  -------         MODULE        ?C?ULDIV
  C:0AC4H         PUBLIC        ?C?ULDIV
  -------         ENDMOD        ?C?ULDIV

  -------         MODULE        ?C?SLDIV
  C:2851H         PUBLIC        ?C?SLDIV
  -------         ENDMOD        ?C?SLDIV

  -------         MODULE        ?C?ULSHR
  C:0B56H         PUBLIC        ?C?ULSHR
  -------         ENDMOD        ?C?ULSHR

  -------         MODULE        ?C?SLSHR
  C:0B69H         PUBLIC        ?C?SLSHR
  -------         ENDMOD        ?C?SLSHR

  -------         MODULE        ?C?LLDCODE
  C:0B7DH         PUBLIC        ?C?LLDCODE
  -------         ENDMOD        ?C?LLDCODE

  -------         MODULE        ?C?LSTXDATA
  C:0B8DH         PUBLIC        ?C?LSTXDATA
  -------         ENDMOD        ?C?LSTXDATA

  -------         MODULE        ?C?OFFXADD
  C:0B99H         PUBLIC        ?C?OFFXADD
  -------         ENDMOD        ?C?OFFXADD

  -------         MODULE        ?C?ICALL
  C:0BA5H         PUBLIC        ?C?ICALL
  C:0BA9H         PUBLIC        ?C?ICALL2
  -------         ENDMOD        ?C?ICALL

  -------         MODULE        ?C_IBP
  D:001EH         PUBLIC        ?C_IBP
  -------         ENDMOD        ?C_IBP

*** WARNING L16: UNCALLED SEGMENT, IGNORED FOR OVERLAY PROCESS
    SEGMENT: ?PR?_GETADCNAVACT?ADC

*** WARNING L16: UNCALLED SEGMENT, IGNORED FOR OVERLAY PROCESS
BL51 BANKED LINKER/LOCATER V6.22                                                      09/19/2025  10:17:04  PAGE 41


    SEGMENT: ?PR?_SEG7SETMODE?DISPLAYER

*** WARNING L16: UNCALLED SEGMENT, IGNORED FOR OVERLAY PROCESS
    SEGMENT: ?PR?_LEDSETMODE?DISPLAYER

*** WARNING L16: UNCALLED SEGMENT, IGNORED FOR OVERLAY PROCESS
    SEGMENT: ?PR?GETULTRASONIC?SYS

*** WARNING L16: UNCALLED SEGMENT, IGNORED FOR OVERLAY PROCESS
    SEGMENT: ?PR?GETSYSPERFORMANCE?SYS

*** WARNING L16: UNCALLED SEGMENT, IGNORED FOR OVERLAY PROCESS
    SEGMENT: ?PR?GETPLAYERMODE?MUSIC

*** WARNING L16: UNCALLED SEGMENT, IGNORED FOR OVERLAY PROCESS
    SEGMENT: ?PR?GETUART2TXSTATUS?UART2

******************************************************************************
* RESTRICTED VERSION WITH 0800H BYTE CODE SIZE LIMIT; USED: 07ADH BYTE (95%) *
******************************************************************************

Program Size: data=121.1 xdata=237 code=9691
LINK/LOCATE RUN COMPLETE.  7 WARNING(S),  0 ERROR(S)
