BL51 BANKED LINKER/LOCATER V6.22                                                        09/17/2025  16:47:22  PAGE 1


BL51 BANKED LINKER/LOCATER V6.22, INVOKED BY:
D:\KEIL\C51\BIN\BL51.EXE main.obj, .\STCBSP_V3.6b.LIB TO test RAMSIZE (256)


MEMORY MODEL: SMALL


INPUT MODULES INCLUDED:
  main.obj (MAIN)
  .\STCBSP_V3.6b.LIB (DISPLAYER)
  .\STCBSP_V3.6b.LIB (KEY)
  .\STCBSP_V3.6b.LIB (SYS)
  .\STCBSP_V3.6b.LIB (VIB)
  .\STCBSP_V3.6b.LIB (UART2)
  D:\KEIL\C51\LIB\C51S.LIB (?C_STARTUP)
  D:\KEIL\C51\LIB\C51S.LIB (?C?CLDOPTR)
  D:\KEIL\C51\LIB\C51S.LIB (?C?CSTOPTR)
  D:\KEIL\C51\LIB\C51S.LIB (?C?IMUL)
  D:\KEIL\C51\LIB\C51S.LIB (?C?ILDIX)
  D:\KEIL\C51\LIB\C51S.LIB (?C?LMUL)
  D:\KEIL\C51\LIB\C51S.LIB (?C?ULDIV)
  D:\KEIL\C51\LIB\C51S.LIB (?C?SLDIV)
  D:\KEIL\C51\LIB\C51S.LIB (?C?ULSHR)
  D:\KEIL\C51\LIB\C51S.LIB (?C?SLSHR)
  D:\KEIL\C51\LIB\C51S.LIB (?C?LLDCODE)
  D:\KEIL\C51\LIB\C51S.LIB (?C?LSTXDATA)
  D:\KEIL\C51\LIB\C51S.LIB (?C?OFFXADD)
  D:\KEIL\C51\LIB\C51S.LIB (?C?ICALL)
  D:\KEIL\C51\LIB\C51S.LIB (?C_IBP)
  D:\KEIL\C51\LIB\C51S.LIB (?C_INIT)


LINK MAP OF MODULE:  test (MAIN)


            TYPE    BASE      LENGTH    RELOCATION   SEGMENT NAME
            -----------------------------------------------------

            * * * * * * *   D A T A   M E M O R Y   * * * * * * *
            REG     0000H     0008H     ABSOLUTE     "REG BANK 0"
            DATA    0008H     0013H     UNIT         ?DT?MAIN
            DATA    001BH     0002H     UNIT         ?DT?GETULTRASONIC?SYS
            DATA    001DH     0001H     UNIT         ?DT?UART2
            DATA    001EH     0001H     UNIT         ?C?LIB_DATA
                    001FH     0001H                  *** GAP ***
            BIT     0020H.0   0001H.7   UNIT         ?BI?SYS
                    0021H.7   0000H.1                *** GAP ***
            DATA    0022H     0011H     UNIT         ?DT?SYS
            DATA    0033H     000AH     UNIT         _DATA_GROUP_
            DATA    003DH     0008H     UNIT         ?DT?_SEG7SETMODE?DISPLAYER
            DATA    0045H     0008H     UNIT         ?DT?_LEDSETMODE?DISPLAYER
            IDATA   004DH     0001H     UNIT         ?STACK

            * * * * * * *  X D A T A   M E M O R Y  * * * * * * *
            XDATA   0000H     006FH     UNIT         ?XD?SYS
            XDATA   006FH     001EH     UNIT         ?XD?DISPLAYER
            XDATA   008DH     0016H     UNIT         ?XD?UART2
            XDATA   00A3H     000BH     UNIT         ?XD?KEY
BL51 BANKED LINKER/LOCATER V6.22                                                      09/17/2025  16:47:22  PAGE 2


            XDATA   00AEH     0002H     UNIT         ?XD?VIB

            * * * * * * *   C O D E   M E M O R Y   * * * * * * *
            CODE    0000H     0003H     ABSOLUTE     
                    0003H     0008H                  *** GAP ***
            CODE    000BH     0003H     ABSOLUTE     
                    000EH     002DH                  *** GAP ***
            CODE    003BH     0003H     ABSOLUTE     
                    003EH     0005H                  *** GAP ***
            CODE    0043H     0003H     ABSOLUTE     
                    0046H     07BAH                  *** GAP ***
            CODE    0800H     01E9H     UNIT         ?C?LIB_CODE
            CODE    09E9H     01DBH     UNIT         ?PR?UART2_ISR?UART2
            CODE    0BC4H     017BH     UNIT         ?PR?_?SYS_DISPLAY_DRV?DISPLAYER
            CODE    0D3FH     0127H     UNIT         ?PR?_?SYS_KEY_DRV?KEY
            CODE    0E66H     00FDH     UNIT         ?C_INITSEG
            CODE    0F63H     00F1H     UNIT         ?PR?SYS_TASK_1MS?SYS
            CODE    1054H     00BBH     UNIT         ?PR?_UART2INIT?UART2
            CODE    110FH     00A8H     UNIT         ?PR?SYS_CCP_ISR?SYS
            CODE    11B7H     009BH     UNIT         ?PR?MYDISPLAY_CALLBACK?MAIN
            CODE    1252H     0093H     UNIT         ?PR?SYS_TASK_10MS?SYS
            CODE    12E5H     008FH     UNIT         ?PR?MYLED_CALLBACK?MAIN
            CODE    1374H     008FH     UNIT         ?PR?_SEG7SETMODE?DISPLAYER
            CODE    1403H     008FH     UNIT         ?PR?_LEDSETMODE?DISPLAYER
            CODE    1492H     008CH     UNIT         ?C_C51STARTUP
            CODE    151EH     008BH     UNIT         ?PR?SYS_TASK_IR?SYS
            CODE    15A9H     007DH     UNIT         ?PR?_SETEVENTCALLBACK?SYS
            CODE    1626H     0077H     UNIT         ?PR?MAIN?MAIN
            CODE    169DH     0053H     UNIT         ?PR?GETULTRASONIC?SYS
            CODE    16F0H     0052H     UNIT         ?PR?SYS_TIMER0_ISR?SYS
            CODE    1742H     0047H     UNIT         ?PR?SYS_TIMER0_INIT?SYS
            CODE    1789H     0044H     UNIT         ?C?LDIV
            CODE    17CDH     0040H     UNIT         ?PR?_GETKEYACT?KEY
            CODE    180DH     003FH     UNIT         ?PR?SYS_TASK_100MS?SYS
            CODE    184CH     003EH     UNIT         ?PR?MYSTC_OS?SYS
            CODE    188AH     0032H     UNIT         ?CO?MAIN
            CODE    18BCH     0031H     UNIT         ?PR?_SETUART2RXD?UART2
            CODE    18EDH     0031H     UNIT         ?PR?_UART2PRINT?UART2
            CODE    191EH     002BH     UNIT         ?PR?SYS_TASK_1S?SYS
            CODE    1949H     0020H     UNIT         ?PR?_SEG7PRINT?DISPLAYER
            CODE    1969H     001DH     UNIT         ?PR?MYVIB_CALLBACK?MAIN
            CODE    1986H     001DH     UNIT         ?PR?KEYINIT?KEY
            CODE    19A3H     001DH     UNIT         ?PR?VIBINIT?VIB
            CODE    19C0H     001BH     UNIT         ?PR?MYUART2_CALLBACK?MAIN
            CODE    19DBH     001BH     UNIT         ?PR?DISPLAYERINIT?DISPLAYER
            CODE    19F6H     0011H     UNIT         ?PR?MYKEY_CALLBACK?MAIN
            CODE    1A07H     0011H     UNIT         ?PR?_SETCCP0?SYS
            CODE    1A18H     000FH     UNIT         ?PR?_?SYS_GET_KEYEVENT?KEY
            CODE    1A27H     000FH     UNIT         ?PR?_?SYS_GET_SVEVENT?VIB
            CODE    1A36H     000FH     UNIT         ?PR?_?GETVIBACT?VIB
            CODE    1A45H     000FH     UNIT         ?PR?_?SYS_GET_UART2RXDEVENT?UART2
            CODE    1A54H     000EH     UNIT         ?PR?_?SYS_SV_DRV?VIB
            CODE    1A62H     000BH     UNIT         ?PR?GETUART2TXSTATUS?UART2
            CODE    1A6DH     0009H     UNIT         ?PR?_SETDISPLAYERAREA?DISPLAYER
            CODE    1A76H     0009H     UNIT         ?PR?GETBEEPTIMER?SYS
            CODE    1A7FH     0009H     UNIT         ?PR?_SETBEEPTIMER?SYS
            CODE    1A88H     0007H     UNIT         ?PR?GETSYSPERFORMANCE?SYS
BL51 BANKED LINKER/LOCATER V6.22                                                      09/17/2025  16:47:22  PAGE 3


            CODE    1A8FH     0006H     UNIT         ?PR?_LEDPRINT?DISPLAYER
            CODE    1A95H     0006H     UNIT         ?PR?MYSTC_INIT?SYS
            CODE    1A9BH     0003H     UNIT         ?PR?_?RET0FUNC?SYS
            CODE    1A9EH     0003H     UNIT         ?PR?CLRBEEPPIN?SYS
            CODE    1AA1H     0001H     UNIT         ?PR?_?NULLFUNC?SYS
            CODE    1AA2H     0001H     UNIT         ?PR?_?NULLFUNC0?UART2



OVERLAY MAP OF MODULE:   test (MAIN)


SEGMENT                                     DATA_GROUP 
  +--> CALLED SEGMENT                     START    LENGTH
---------------------------------------------------------
?C_C51STARTUP                             -----    -----
  +--> ?PR?MAIN?MAIN
  +--> ?C_INITSEG

?PR?MAIN?MAIN                             -----    -----
  +--> ?PR?_UART2INIT?UART2
  +--> ?PR?DISPLAYERINIT?DISPLAYER
  +--> ?PR?KEYINIT?KEY
  +--> ?PR?VIBINIT?VIB
  +--> ?PR?_SETDISPLAYERAREA?DISPLAYER
  +--> ?PR?_SETUART2RXD?UART2
  +--> ?PR?MYVIB_CALLBACK?MAIN
  +--> ?PR?_SETEVENTCALLBACK?SYS
  +--> ?PR?MYKEY_CALLBACK?MAIN
  +--> ?PR?MYUART2_CALLBACK?MAIN
  +--> ?PR?MYDISPLAY_CALLBACK?MAIN
  +--> ?PR?MYLED_CALLBACK?MAIN
  +--> ?PR?MYSTC_INIT?SYS
  +--> ?PR?MYSTC_OS?SYS

?PR?_UART2INIT?UART2                      0033H    0005H
  +--> ?PR?_?NULLFUNC0?UART2
  +--> ?CO?MAIN
  +--> ?PR?_?SYS_GET_UART2RXDEVENT?UART2

?PR?DISPLAYERINIT?DISPLAYER               -----    -----
  +--> ?PR?_?SYS_DISPLAY_DRV?DISPLAYER

?PR?_?SYS_DISPLAY_DRV?DISPLAYER           -----    -----
  +--> ?CO?MAIN

?PR?KEYINIT?KEY                           -----    -----
  +--> ?PR?_?SYS_GET_KEYEVENT?KEY
  +--> ?PR?_?SYS_KEY_DRV?KEY

?PR?VIBINIT?VIB                           -----    -----
  +--> ?PR?_?SYS_GET_SVEVENT?VIB
  +--> ?PR?_?SYS_SV_DRV?VIB

?PR?_SETUART2RXD?UART2                    0033H    000AH

?PR?MYVIB_CALLBACK?MAIN                   -----    -----
BL51 BANKED LINKER/LOCATER V6.22                                                      09/17/2025  16:47:22  PAGE 4


  +--> ?PR?_?GETVIBACT?VIB
  +--> ?PR?_UART2PRINT?UART2

?PR?_SETEVENTCALLBACK?SYS                 0033H    0003H

?PR?MYKEY_CALLBACK?MAIN                   -----    -----
  +--> ?PR?_GETKEYACT?KEY

?PR?MYUART2_CALLBACK?MAIN                 0033H    0001H

?PR?MYDISPLAY_CALLBACK?MAIN               0033H    0002H
  +--> ?PR?_SEG7PRINT?DISPLAYER

?PR?_SEG7PRINT?DISPLAYER                  0035H    0008H

?PR?MYLED_CALLBACK?MAIN                   -----    -----
  +--> ?PR?_LEDPRINT?DISPLAYER

?PR?MYSTC_INIT?SYS                        -----    -----
  +--> ?PR?SYS_TIMER0_INIT?SYS

?PR?SYS_TIMER0_INIT?SYS                   -----    -----
  +--> ?CO?MAIN

?PR?MYSTC_OS?SYS                          -----    -----
  +--> ?PR?SYS_TASK_IR?SYS
  +--> ?PR?SYS_TASK_1MS?SYS
  +--> ?PR?SYS_TASK_10MS?SYS
  +--> ?PR?SYS_TASK_100MS?SYS
  +--> ?PR?SYS_TASK_1S?SYS

?C_INITSEG                                -----    -----
  +--> ?PR?_?NULLFUNC?SYS
  +--> ?PR?_?RET0FUNC?SYS



SYMBOL TABLE OF MODULE:  test (MAIN)

  VALUE           TYPE          NAME
  ----------------------------------

  -------         MODULE        MAIN
  C:0000H         SYMBOL        _ICE_DUMMY_
  D:0080H         PUBLIC        P0
  D:0090H         PUBLIC        P1
  D:00A0H         PUBLIC        P2
  D:00B0H         PUBLIC        P3
  D:00C0H         PUBLIC        P4
  D:00C8H         PUBLIC        P5
  D:00E8H         PUBLIC        P6
  D:00F8H         PUBLIC        P7
  D:00A8H         PUBLIC        IE
  D:00B8H         PUBLIC        IP
  C:1969H         PUBLIC        myVib_callback
  D:00D8H         PUBLIC        CCON
  C:19F6H         PUBLIC        myKey_callback
BL51 BANKED LINKER/LOCATER V6.22                                                      09/17/2025  16:47:22  PAGE 5


  C:1626H         PUBLIC        main
  D:0008H         PUBLIC        count
  C:188AH         PUBLIC        SysClock
  D:000AH         PUBLIC        led_flow_reverse
  D:0098H         PUBLIC        SCON
  D:0088H         PUBLIC        TCON
  D:000CH         PUBLIC        uart_data
  D:000FH         PUBLIC        LEDchange
  D:0011H         PUBLIC        data_recieved
  C:19C0H         PUBLIC        myUart2_callback
  C:12E5H         PUBLIC        myLED_callback
  C:188EH         PUBLIC        decode_table
  C:11B7H         PUBLIC        myDisplay_callback
  D:0016H         PUBLIC        matched_data
  D:0018H         PUBLIC        led_val
  D:00D0H         PUBLIC        PSW
  D:0019H         PUBLIC        LEDmode
  -------         PROC          MYUART2_CALLBACK
  -------         DO            
  D:0007H         SYMBOL        flag
  D:0033H         SYMBOL        menu_select
  -------         ENDDO         
  C:19C0H         LINE#         90
  C:19C0H         LINE#         91
  C:19C0H         LINE#         92
  C:19C2H         LINE#         93
  C:19C5H         LINE#         95
  C:19CDH         LINE#         96
  C:19D4H         LINE#         98
  C:19DAH         LINE#         99
  -------         ENDPROC       MYUART2_CALLBACK
  -------         PROC          MYDISPLAY_CALLBACK
  -------         DO            
  D:0033H         SYMBOL        flag
  D:0034H         SYMBOL        menu_select
  -------         ENDDO         
  C:11B7H         LINE#         100
  C:11B7H         LINE#         101
  C:11B7H         LINE#         102
  C:11BAH         LINE#         103
  C:11BDH         LINE#         104
  C:11C1H         LINE#         105
  C:11C1H         LINE#         106
  C:11C5H         LINE#         107
  C:11C7H         LINE#         108
  C:11CCH         LINE#         109
  C:11E1H         LINE#         110
  C:11E6H         LINE#         111
  C:11FBH         LINE#         112
  C:1200H         LINE#         113
  C:1217H         LINE#         114
  C:121DH         LINE#         115
  C:1232H         LINE#         116
  C:1234H         LINE#         117
  C:1239H         LINE#         118
  C:1251H         LINE#         119
  -------         ENDPROC       MYDISPLAY_CALLBACK
BL51 BANKED LINKER/LOCATER V6.22                                                      09/17/2025  16:47:22  PAGE 6


  -------         PROC          MYKEY_CALLBACK
  -------         DO            
  D:0007H         SYMBOL        k
  -------         ENDDO         
  C:19F6H         LINE#         120
  C:19F6H         LINE#         121
  C:19F6H         LINE#         122
  C:19FBH         LINE#         123
  C:19FEH         LINE#         125
  C:1A06H         LINE#         126
  -------         ENDPROC       MYKEY_CALLBACK
  -------         PROC          MYLED_CALLBACK
  C:12E5H         LINE#         127
  C:12E5H         LINE#         128
  C:12E5H         LINE#         130
  C:12F5H         LINE#         131
  C:12F5H         LINE#         132
  C:12F7H         LINE#         133
  C:12F9H         LINE#         134
  C:130BH         LINE#         135
  C:130BH         LINE#         136
  C:130DH         LINE#         137
  C:130FH         LINE#         138
  C:1317H         LINE#         139
  C:1317H         LINE#         140
  C:131CH         LINE#         141
  C:131CH         LINE#         142
  C:132BH         LINE#         145
  C:133AH         LINE#         146
  C:133AH         LINE#         147
  C:1340H         LINE#         148
  C:1341H         LINE#         149
  C:1352H         LINE#         150
  C:1352H         LINE#         151
  C:1358H         LINE#         152
  C:1359H         LINE#         153
  C:1364H         LINE#         154
  C:1364H         LINE#         155
  C:1373H         LINE#         156
  C:1373H         LINE#         157
  -------         ENDPROC       MYLED_CALLBACK
  -------         PROC          MYVIB_CALLBACK
  -------         DO            
  D:0007H         SYMBOL        k
  -------         ENDDO         
  C:1969H         LINE#         158
  C:1969H         LINE#         159
  C:1969H         LINE#         160
  C:196CH         LINE#         161
  C:196FH         LINE#         162
  C:196FH         LINE#         163
  C:1972H         LINE#         164
  C:1975H         LINE#         165
  C:1978H         LINE#         166
  C:1985H         LINE#         167
  C:1985H         LINE#         168
  -------         ENDPROC       MYVIB_CALLBACK
BL51 BANKED LINKER/LOCATER V6.22                                                      09/17/2025  16:47:22  PAGE 7


  -------         PROC          MAIN
  C:1626H         LINE#         169
  C:1626H         LINE#         170
  C:1626H         LINE#         171
  C:1632H         LINE#         172
  C:1635H         LINE#         173
  C:1638H         LINE#         174
  C:163BH         LINE#         175
  C:1642H         LINE#         177
  C:165EH         LINE#         179
  C:1669H         LINE#         180
  C:1674H         LINE#         181
  C:167FH         LINE#         182
  C:168AH         LINE#         183
  C:1695H         LINE#         185
  C:1698H         LINE#         186
  C:1698H         LINE#         187
  C:1698H         LINE#         188
  C:169BH         LINE#         189
  -------         ENDPROC       MAIN
  -------         ENDMOD        MAIN

  -------         MODULE        DISPLAYER
  C:0000H         SYMBOL        _ICE_DUMMY_
  D:0093H         PUBLIC        P0M1
  D:0096H         PUBLIC        P2M0
  D:0080H         PUBLIC        P0
  D:0095H         PUBLIC        P2M1
  D:0090H         PUBLIC        P1
  D:00A0H         PUBLIC        P2
  D:00B0H         PUBLIC        P3
  D:00C0H         PUBLIC        P4
  D:00C8H         PUBLIC        P5
  D:00E8H         PUBLIC        P6
  D:00F8H         PUBLIC        P7
  C:1374H         PUBLIC        _Seg7SetMode
  D:00A8H         PUBLIC        IE
  D:00B8H         PUBLIC        IP
  D:00D8H         PUBLIC        CCON
  C:1A8FH         PUBLIC        _LedPrint
  B:00A0H.0       PUBLIC        P20
  B:00A0H.1       PUBLIC        P21
  D:0098H         PUBLIC        SCON
  B:00A0H.2       PUBLIC        P22
  D:0088H         PUBLIC        TCON
  B:00A0H.3       PUBLIC        P23
  C:19DBH         PUBLIC        DisplayerInit
  C:1403H         PUBLIC        _LedSetMode
  X:0071H         PUBLIC        sys_Disp
  C:1A6DH         PUBLIC        _SetDisplayerArea
  C:1949H         PUBLIC        _Seg7Print
  C:0BC4H         PUBLIC        _?sys_display_drv
  D:00D0H         PUBLIC        PSW
  D:0094H         PUBLIC        P0M0
  -------         PROC          _?SYS_DISPLAY_DRV
  -------         DO            
  X:006FH         SYMBOL        T1mS
BL51 BANKED LINKER/LOCATER V6.22                                                      09/17/2025  16:47:22  PAGE 8


  X:0070H         SYMBOL        T100mS
  i:0000H         SYMBOL        d
  i:0001H         SYMBOL        i
  -------         ENDDO         
  C:0BC4H         LINE#         18
  C:0BC8H         LINE#         21
  C:0BD5H         LINE#         22
  C:0BD8H         LINE#         23
  C:0BE5H         LINE#         24
  C:0BE5H         LINE#         25
  C:0BE8H         LINE#         26
  C:0C11H         LINE#         27
  C:0C17H         LINE#         28
  C:0C1DH         LINE#         29
  C:0C23H         LINE#         30
  C:0C29H         LINE#         31
  C:0C33H         LINE#         32
  C:0C3DH         LINE#         33
  C:0C47H         LINE#         34
  C:0C51H         LINE#         35
  C:0C53H         LINE#         36
  C:0C53H         LINE#         37
  C:0C5BH         LINE#         38
  C:0C80H         LINE#         39
  C:0CA0H         LINE#         40
  C:0CA0H         LINE#         41
  C:0CA2H         LINE#         43
  C:0CABH         LINE#         44
  C:0CBEH         LINE#         45
  C:0CCDH         LINE#         46
  C:0CCDH         LINE#         47
  C:0CE9H         LINE#         48
  C:0CFEH         LINE#         49
  C:0D04H         LINE#         50
  C:0D09H         LINE#         51
  C:0D0BH         LINE#         52
  C:0D0EH         LINE#         53
  C:0D0EH         LINE#         55
  C:0D25H         LINE#         56
  C:0D32H         LINE#         58
  C:0D3AH         LINE#         59
  -------         ENDPROC       _?SYS_DISPLAY_DRV
  -------         PROC          DISPLAYERINIT
  C:19DBH         LINE#         61
  C:19DBH         LINE#         62
  C:19DBH         LINE#         63
  C:19DEH         LINE#         64
  C:19E1H         LINE#         65
  C:19E4H         LINE#         66
  C:19E7H         LINE#         67
  C:19F5H         LINE#         68
  -------         ENDPROC       DISPLAYERINIT
  -------         PROC          _SETDISPLAYERAREA
  D:0007H         SYMBOL        Begin_of_scan
  D:0005H         SYMBOL        Ending_of_Scan
  C:1A6DH         LINE#         70
  C:1A6DH         LINE#         71
BL51 BANKED LINKER/LOCATER V6.22                                                      09/17/2025  16:47:22  PAGE 9


  C:1A72H         LINE#         72
  C:1A75H         LINE#         73
  -------         ENDPROC       _SETDISPLAYERAREA
  -------         PROC          _SEG7PRINT
  D:0007H         SYMBOL        d0
  D:0005H         SYMBOL        d1
  D:0003H         SYMBOL        d2
  D:0038H         SYMBOL        d3
  D:0039H         SYMBOL        d4
  D:003AH         SYMBOL        d5
  D:003BH         SYMBOL        d6
  D:003CH         SYMBOL        d7
  C:1949H         LINE#         75
  C:1949H         LINE#         76
  C:194EH         LINE#         77
  C:1951H         LINE#         78
  C:1954H         LINE#         79
  C:1958H         LINE#         80
  C:195CH         LINE#         81
  C:1960H         LINE#         82
  C:1964H         LINE#         83
  C:1968H         LINE#         84
  -------         ENDPROC       _SEG7PRINT
  -------         PROC          _LEDPRINT
  D:0007H         SYMBOL        led_val
  C:1A8FH         LINE#         86
  C:1A8FH         LINE#         87
  C:1A94H         LINE#         88
  -------         ENDPROC       _LEDPRINT
  -------         PROC          _SEG7SETMODE
  D:0007H         SYMBOL        m0
  D:0005H         SYMBOL        m1
  D:0003H         SYMBOL        m2
  D:0040H         SYMBOL        m3
  D:0041H         SYMBOL        m4
  D:0042H         SYMBOL        m5
  D:0043H         SYMBOL        m6
  D:0044H         SYMBOL        m7
  C:1374H         LINE#         90
  C:1374H         LINE#         91
  C:1388H         LINE#         92
  C:1398H         LINE#         93
  C:13A8H         LINE#         94
  C:13BAH         LINE#         95
  C:13CCH         LINE#         96
  C:13DEH         LINE#         97
  C:13F0H         LINE#         98
  C:1402H         LINE#         99
  -------         ENDPROC       _SEG7SETMODE
  -------         PROC          _LEDSETMODE
  D:0007H         SYMBOL        m0
  D:0005H         SYMBOL        m1
  D:0003H         SYMBOL        m2
  D:0048H         SYMBOL        m3
  D:0049H         SYMBOL        m4
  D:004AH         SYMBOL        m5
  D:004BH         SYMBOL        m6
BL51 BANKED LINKER/LOCATER V6.22                                                      09/17/2025  16:47:22  PAGE 10


  D:004CH         SYMBOL        m7
  C:1403H         LINE#         101
  C:1403H         LINE#         102
  C:1417H         LINE#         103
  C:1427H         LINE#         104
  C:1437H         LINE#         105
  C:1449H         LINE#         106
  C:145BH         LINE#         107
  C:146DH         LINE#         108
  C:147FH         LINE#         109
  C:1491H         LINE#         110
  -------         ENDPROC       _LEDSETMODE
  -------         ENDMOD        DISPLAYER

  -------         MODULE        KEY
  C:0000H         SYMBOL        _ICE_DUMMY_
  D:0080H         PUBLIC        P0
  D:0090H         PUBLIC        P1
  D:00A0H         PUBLIC        P2
  D:00B0H         PUBLIC        P3
  D:00C0H         PUBLIC        P4
  D:00C8H         PUBLIC        P5
  D:00E8H         PUBLIC        P6
  D:00F8H         PUBLIC        P7
  D:00A8H         PUBLIC        IE
  X:00A4H         PUBLIC        sys_keyEvent
  D:00B8H         PUBLIC        IP
  D:00D8H         PUBLIC        CCON
  C:1A18H         PUBLIC        _?sys_get_keyEvent
  D:0098H         PUBLIC        SCON
  D:0088H         PUBLIC        TCON
  C:0D3FH         PUBLIC        _?sys_key_drv
  C:1986H         PUBLIC        KeyInit
  B:00B0H.2       PUBLIC        IO_Key1
  B:00B0H.3       PUBLIC        IO_Key2
  B:0090H.7       PUBLIC        IO_Key3
  C:17CDH         PUBLIC        _GetKeyAct
  X:00A5H         PUBLIC        sys_Key
  D:00D0H         PUBLIC        PSW
  -------         PROC          _?SYS_KEY_DRV
  -------         DO            
  i:0000H         SYMBOL        i
  X:00A3H         SYMBOL        counter
  -------         ENDDO         
  C:0D3FH         LINE#         28
  C:0D41H         LINE#         31
  C:0D4AH         LINE#         32
  C:0D53H         LINE#         33
  C:0D5CH         LINE#         34
  C:0D67H         LINE#         35
  C:0D6AH         LINE#         36
  C:0D7CH         LINE#         37
  C:0D9AH         LINE#         38
  C:0DB3H         LINE#         39
  C:0DCFH         LINE#         40
  C:0DD3H         LINE#         41
  C:0DD3H         LINE#         42
BL51 BANKED LINKER/LOCATER V6.22                                                      09/17/2025  16:47:22  PAGE 11


  C:0DD5H         LINE#         44
  C:0DF6H         LINE#         45
  C:0E0CH         LINE#         46
  C:0E11H         LINE#         47
  C:0E11H         LINE#         48
  C:0E11H         LINE#         49
  C:0E44H         LINE#         50
  C:0E5FH         LINE#         51
  C:0E63H         LINE#         52
  C:0E63H         LINE#         53
  -------         ENDPROC       _?SYS_KEY_DRV
  -------         PROC          _?SYS_GET_KEYEVENT
  -------         DO            
  i:0000H         SYMBOL        a
  -------         ENDDO         
  C:1A18H         LINE#         55
  C:1A1AH         LINE#         57
  C:1A22H         LINE#         58
  C:1A24H         LINE#         59
  C:1A24H         LINE#         60
  -------         ENDPROC       _?SYS_GET_KEYEVENT
  -------         PROC          KEYINIT
  C:1986H         LINE#         62
  C:1986H         LINE#         63
  C:1986H         LINE#         66
  C:1994H         LINE#         67
  C:19A2H         LINE#         68
  -------         ENDPROC       KEYINIT
  -------         PROC          _GETKEYACT
  D:0007H         SYMBOL        Key
  -------         DO            
  D:0006H         SYMBOL        a
  -------         ENDDO         
  C:17CDH         LINE#         70
  C:17CDH         LINE#         71
  C:17CDH         LINE#         72
  C:17D7H         LINE#         73
  C:17F2H         LINE#         74
  C:1807H         LINE#         75
  C:180AH         LINE#         76
  C:180AH         LINE#         77
  C:180CH         LINE#         78
  -------         ENDPROC       _GETKEYACT
  -------         ENDMOD        KEY

  -------         MODULE        SYS
  C:0000H         SYMBOL        _ICE_DUMMY_
  X:0000H         PUBLIC        count_1mS
  B:00D8H.2       PUBLIC        CCF2
  D:0080H         PUBLIC        P0
  B:0020H.1       PUBLIC        flag_1S
  D:0090H         PUBLIC        P1
  D:00A0H         PUBLIC        P2
  D:00B0H         PUBLIC        P3
  D:00C0H         PUBLIC        P4
  X:0001H         PUBLIC        T1
  D:00C8H         PUBLIC        P5
BL51 BANKED LINKER/LOCATER V6.22                                                      09/17/2025  16:47:22  PAGE 12


  X:0003H         PUBLIC        T2
  B:00A8H.7       PUBLIC        EA
  D:00E8H         PUBLIC        P6
  D:00F8H         PUBLIC        P7
  D:0023H         PUBLIC        IrDatNum
  B:00D8H.7       PUBLIC        CF
  B:0020H.2       PUBLIC        Ir_Coder
  B:0020H.3       PUBLIC        Ir_RxBusy
  D:00A8H         PUBLIC        IE
  B:0020H.4       PUBLIC        Ir_TxBusy
  X:0005H         PUBLIC        userfunccall
  D:00FAH         PUBLIC        CCAP0H
  D:00FBH         PUBLIC        CCAP1H
  C:151EH         PUBLIC        sys_task_Ir
  D:0024H         PUBLIC        IrCount_j
  D:0025H         PUBLIC        IrRx_count
  D:0026H         PUBLIC        IrProtocol
  D:00EAH         PUBLIC        CCAP0L
  D:0027H         PUBLIC        IrTx_count
  D:00EBH         PUBLIC        CCAP1L
  D:00DAH         PUBLIC        CCAPM0
  D:00DBH         PUBLIC        CCAPM1
  D:0028H         PUBLIC        MainLoops
  D:00B8H         PUBLIC        IP
  B:00D0H.7       PUBLIC        CY
  B:0020H.5       PUBLIC        flag_10mS
  D:00D8H         PUBLIC        CCON
  C:1A76H         PUBLIC        GetBeepTimer
  C:16F0H         PUBLIC        sys_Timer0_isr
  C:15A9H         PUBLIC        _SetEventCallBack
  C:1A95H         PUBLIC        MySTC_Init
  C:180DH         PUBLIC        sys_task_100mS
  X:0029H         PUBLIC        ModBus_interval_time
  C:1A9BH         PUBLIC        _?ret0func
  C:169DH         PUBLIC        GetUltraSonic
  X:002AH         PUBLIC        count_10mS
  X:002BH         PUBLIC        stcDrivers
  C:1A7FH         PUBLIC        _SetBeepTimer
  B:0020H.6       PUBLIC        flag_IrRxFinished
  D:0098H         PUBLIC        SCON
  C:1A07H         PUBLIC        _SetCCP0
  C:184CH         PUBLIC        MySTC_OS
  D:0089H         PUBLIC        TMOD
  D:0088H         PUBLIC        TCON
  B:0020H.7       PUBLIC        flag_Ir
  B:00B0H.5       PUBLIC        P35
  D:002CH         PUBLIC        IrRxNum
  X:0061H         PUBLIC        SysPerformance
  D:008EH         PUBLIC        AUXR
  C:110FH         PUBLIC        sys_CCP_isr
  C:0F63H         PUBLIC        sys_task_1mS
  B:00A8H.1       PUBLIC        ET0
  C:1A9EH         PUBLIC        ClrBeepPin
  D:008CH         PUBLIC        TH0
  B:0021H.0       PUBLIC        flag_100mS
  X:0066H         PUBLIC        distance
  D:008AH         PUBLIC        TL0
BL51 BANKED LINKER/LOCATER V6.22                                                      09/17/2025  16:47:22  PAGE 13


  D:002DH         PUBLIC        PollingMisses
  X:0068H         PUBLIC        sys_BP
  B:0088H.4       PUBLIC        TR0
  C:191EH         PUBLIC        sys_task_1S
  C:1A88H         PUBLIC        GetSysPerformance
  B:0021H.1       PUBLIC        matchModBus
  X:006EH         PUBLIC        count_100mS
  B:0021H.2       PUBLIC        Ir_BitBusy
  D:002EH         PUBLIC        IrDat_count
  D:002FH         PUBLIC        IrMute_count
  B:0021H.3       PUBLIC        newFrame1
  C:1742H         PUBLIC        sys_Timer0_Init
  B:0021H.4       PUBLIC        newFrame2
  D:0030H         PUBLIC        IrDataPc
  C:1AA1H         PUBLIC        _?nullfunc
  B:0021H.5       PUBLIC        flag_1mS
  B:0021H.6       PUBLIC        newUS
  D:008FH         PUBLIC        INT_CLKO
  C:1252H         PUBLIC        sys_task_10mS
  D:00D0H         PUBLIC        PSW
  B:00D8H.0       PUBLIC        CCF0
  B:00B0H.4       PUBLIC        Beep
  B:00D8H.1       PUBLIC        CCF1
  -------         PROC          _?NULLFUNC
  C:1AA1H         LINE#         13
  -------         ENDPROC       _?NULLFUNC
  -------         PROC          _?RET0FUNC
  C:1A9BH         LINE#         14
  -------         ENDPROC       _?RET0FUNC
  -------         PROC          SYS_TIMER0_INIT
  C:1742H         LINE#         96
  C:1742H         LINE#         97
  C:1745H         LINE#         98
  C:1748H         LINE#         99
  C:175EH         LINE#         100
  C:1784H         LINE#         101
  C:1786H         LINE#         102
  C:1788H         LINE#         103
  -------         ENDPROC       SYS_TIMER0_INIT
  -------         PROC          SYS_TIMER0_ISR
  -------         DO            
  D:0022H         SYMBOL        i
  -------         ENDDO         
  C:16F0H         LINE#         105
  C:16F4H         LINE#         107
  C:16F7H         LINE#         108
  C:16FAH         LINE#         109
  C:16FFH         LINE#         110
  C:1701H         LINE#         111
  C:1701H         LINE#         112
  C:1707H         LINE#         113
  C:170DH         LINE#         114
  C:1710H         LINE#         115
  C:1712H         LINE#         116
  C:1715H         LINE#         117
  C:1719H         LINE#         118
  C:171BH         LINE#         119
BL51 BANKED LINKER/LOCATER V6.22                                                      09/17/2025  16:47:22  PAGE 14


  C:171EH         LINE#         120
  C:1720H         LINE#         122
  C:1723H         LINE#         123
  C:1725H         LINE#         124
  C:172AH         LINE#         125
  C:172AH         LINE#         126
  C:172CH         LINE#         128
  C:1735H         LINE#         129
  C:1737H         LINE#         130
  C:173DH         LINE#         131
  C:173DH         LINE#         132
  C:173DH         LINE#         133
  C:173DH         LINE#         134
  -------         ENDPROC       SYS_TIMER0_ISR
  -------         PROC          GETULTRASONIC
  -------         DO            
  D:001BH         SYMBOL        a
  -------         ENDDO         
  C:169DH         LINE#         138
  C:169DH         LINE#         139
  C:169DH         LINE#         140
  C:16A0H         LINE#         141
  C:16A2H         LINE#         142
  C:16B1H         LINE#         143
  C:16E7H         LINE#         144
  C:16E7H         LINE#         145
  C:16EFH         LINE#         146
  -------         ENDPROC       GETULTRASONIC
  -------         PROC          GETBEEPTIMER
  C:1A76H         LINE#         148
  C:1A76H         LINE#         149
  C:1A7EH         LINE#         150
  -------         ENDPROC       GETBEEPTIMER
  -------         PROC          _SETBEEPTIMER
  D:0006H         SYMBOL        a
  C:1A7FH         LINE#         152
  C:1A7FH         LINE#         153
  C:1A87H         LINE#         154
  -------         ENDPROC       _SETBEEPTIMER
  -------         PROC          _SETCCP0
  D:0006H         SYMBOL        step
  D:0004H         SYMBOL        next
  C:1A07H         LINE#         156
  C:1A07H         LINE#         157
  C:1A0FH         LINE#         158
  C:1A17H         LINE#         159
  -------         ENDPROC       _SETCCP0
  -------         PROC          CLRBEEPPIN
  C:1A9EH         LINE#         161
  C:1A9EH         LINE#         162
  C:1AA0H         LINE#         163
  -------         ENDPROC       CLRBEEPPIN
  -------         PROC          SYS_CCP_ISR
  -------         DO            
  B:0020H.0       SYMBOL        a
  -------         ENDDO         
  C:110FH         LINE#         165
BL51 BANKED LINKER/LOCATER V6.22                                                      09/17/2025  16:47:22  PAGE 15


  C:1122H         LINE#         167
  C:1129H         LINE#         168
  C:1130H         LINE#         169
  C:1133H         LINE#         170
  C:1135H         LINE#         171
  C:1145H         LINE#         172
  C:114CH         LINE#         173
  C:114FH         LINE#         174
  C:1151H         LINE#         175
  C:1153H         LINE#         177
  C:1167H         LINE#         178
  C:116AH         LINE#         179
  C:116CH         LINE#         180
  C:116EH         LINE#         181
  C:1170H         LINE#         183
  C:1170H         LINE#         184
  C:1173H         LINE#         185
  C:1175H         LINE#         186
  C:117FH         LINE#         187
  C:1181H         LINE#         188
  C:118AH         LINE#         189
  C:118DH         LINE#         190
  C:119FH         LINE#         191
  C:11A1H         LINE#         193
  C:11A3H         LINE#         194
  C:11A6H         LINE#         195
  C:11A6H         LINE#         196
  C:11A6H         LINE#         197
  -------         ENDPROC       SYS_CCP_ISR
  -------         PROC          MYSTC_INIT
  C:1A95H         LINE#         199
  C:1A95H         LINE#         200
  C:1A98H         LINE#         201
  C:1A9AH         LINE#         202
  -------         ENDPROC       MYSTC_INIT
  -------         PROC          SYS_TASK_IR
  -------         DO            
  D:0007H         SYMBOL        a
  -------         ENDDO         
  C:151EH         LINE#         204
  C:151EH         LINE#         205
  C:151EH         LINE#         206
  C:1534H         LINE#         207
  C:153BH         LINE#         208
  C:153EH         LINE#         209
  C:1541H         LINE#         210
  C:1557H         LINE#         211
  C:1567H         LINE#         212
  C:156FH         LINE#         213
  C:1572H         LINE#         214
  C:1574H         LINE#         216
  C:158AH         LINE#         217
  C:159EH         LINE#         218
  C:159EH         LINE#         219
  C:15A0H         LINE#         220
  C:15A3H         LINE#         222
  C:15A3H         LINE#         224
BL51 BANKED LINKER/LOCATER V6.22                                                      09/17/2025  16:47:22  PAGE 16


  C:15A5H         LINE#         225
  C:15A8H         LINE#         226
  C:15A8H         LINE#         227
  -------         ENDPROC       SYS_TASK_IR
  -------         PROC          SYS_TASK_1MS
  C:0F63H         LINE#         229
  C:0F63H         LINE#         230
  C:0F6BH         LINE#         231
  C:0F6EH         LINE#         232
  C:0F70H         LINE#         233
  C:0F78H         LINE#         234
  C:0F7BH         LINE#         235
  C:0F7DH         LINE#         236
  C:0F85H         LINE#         237
  C:0F88H         LINE#         238
  C:0F8AH         LINE#         239
  C:0F8AH         LINE#         240
  C:0F8AH         LINE#         241
  C:0F8AH         LINE#         242
  C:0F96H         LINE#         243
  C:0FA2H         LINE#         244
  C:0FAEH         LINE#         245
  C:0FBAH         LINE#         246
  C:0FC6H         LINE#         247
  C:0FD2H         LINE#         248
  C:0FEDH         LINE#         249
  C:0FFCH         LINE#         250
  C:1008H         LINE#         251
  C:100AH         LINE#         252
  C:100AH         LINE#         253
  C:1013H         LINE#         254
  C:1018H         LINE#         255
  C:1027H         LINE#         256
  C:1029H         LINE#         257
  C:1029H         LINE#         258
  C:102BH         LINE#         260
  C:103AH         LINE#         261
  C:1046H         LINE#         262
  C:1048H         LINE#         263
  C:1048H         LINE#         264
  C:1048H         LINE#         265
  -------         ENDPROC       SYS_TASK_1MS
  -------         PROC          SYS_TASK_10MS
  C:1252H         LINE#         268
  C:1252H         LINE#         269
  C:125EH         LINE#         270
  C:126AH         LINE#         271
  C:1276H         LINE#         272
  C:1282H         LINE#         273
  C:129DH         LINE#         274
  C:12B8H         LINE#         275
  C:12D3H         LINE#         276
  C:12D6H         LINE#         277
  C:12D8H         LINE#         278
  C:12E4H         LINE#         279
  C:12E4H         LINE#         280
  -------         ENDPROC       SYS_TASK_10MS
BL51 BANKED LINKER/LOCATER V6.22                                                      09/17/2025  16:47:22  PAGE 17


  -------         PROC          SYS_TASK_100MS
  C:180DH         LINE#         282
  C:180DH         LINE#         283
  C:1819H         LINE#         284
  C:1834H         LINE#         285
  C:1840H         LINE#         286
  -------         ENDPROC       SYS_TASK_100MS
  -------         PROC          SYS_TASK_1S
  C:191EH         LINE#         289
  C:191EH         LINE#         290
  C:192CH         LINE#         291
  C:1932H         LINE#         292
  C:193BH         LINE#         293
  C:193DH         LINE#         294
  -------         ENDPROC       SYS_TASK_1S
  -------         PROC          MYSTC_OS
  C:184CH         LINE#         297
  C:184CH         LINE#         298
  C:1854H         LINE#         299
  C:185CH         LINE#         300
  C:1864H         LINE#         301
  C:186CH         LINE#         302
  C:1874H         LINE#         303
  C:1889H         LINE#         306
  -------         ENDPROC       MYSTC_OS
  -------         PROC          _SETEVENTCALLBACK
  D:0007H         SYMBOL        event
  D:0033H         SYMBOL        user_callback
  C:15A9H         LINE#         308
  C:15AFH         LINE#         309
  C:15E0H         LINE#         310
  C:15E3H         LINE#         311
  C:15E5H         LINE#         312
  C:15E8H         LINE#         313
  C:15EAH         LINE#         314
  C:15EDH         LINE#         315
  C:15EFH         LINE#         316
  C:15F2H         LINE#         317
  C:15F4H         LINE#         318
  C:15F7H         LINE#         319
  C:15F9H         LINE#         320
  C:15FCH         LINE#         321
  C:15FEH         LINE#         322
  C:1601H         LINE#         323
  C:1603H         LINE#         324
  C:1606H         LINE#         325
  C:1608H         LINE#         326
  C:160BH         LINE#         327
  C:160DH         LINE#         328
  C:1610H         LINE#         329
  C:1612H         LINE#         330
  C:1615H         LINE#         331
  C:1617H         LINE#         332
  C:1625H         LINE#         333
  C:1625H         LINE#         334
  C:1625H         LINE#         335
  C:1625H         LINE#         336
BL51 BANKED LINKER/LOCATER V6.22                                                      09/17/2025  16:47:22  PAGE 18


  -------         ENDPROC       _SETEVENTCALLBACK
  -------         PROC          GETSYSPERFORMANCE
  C:1A88H         LINE#         338
  C:1A88H         LINE#         339
  C:1A8EH         LINE#         340
  -------         ENDPROC       GETSYSPERFORMANCE
  -------         ENDMOD        SYS

  -------         MODULE        VIB
  C:0000H         SYMBOL        _ICE_DUMMY_
  D:0080H         PUBLIC        P0
  D:0090H         PUBLIC        P1
  D:00A0H         PUBLIC        P2
  D:00B0H         PUBLIC        P3
  D:00C0H         PUBLIC        P4
  D:00C8H         PUBLIC        P5
  D:00E8H         PUBLIC        P6
  D:00F8H         PUBLIC        P7
  D:00A8H         PUBLIC        IE
  X:00AEH         PUBLIC        SV_Event
  C:1A27H         PUBLIC        _?sys_get_SVEvent
  C:1A54H         PUBLIC        _?sys_SV_drv
  D:00B8H         PUBLIC        IP
  B:00A0H.4       PUBLIC        IO_SV
  D:00D8H         PUBLIC        CCON
  D:0098H         PUBLIC        SCON
  D:0088H         PUBLIC        TCON
  C:19A3H         PUBLIC        VibInit
  C:1A36H         PUBLIC        _?GetVibAct
  X:00AFH         PUBLIC        sys_SVEvent
  D:00D0H         PUBLIC        PSW
  -------         PROC          _?SYS_SV_DRV
  C:1A54H         LINE#         14
  C:1A54H         LINE#         15
  C:1A57H         LINE#         16
  C:1A5DH         LINE#         17
  C:1A61H         LINE#         18
  C:1A61H         LINE#         19
  -------         ENDPROC       _?SYS_SV_DRV
  -------         PROC          _?SYS_GET_SVEVENT
  -------         DO            
  i:0000H         SYMBOL        a
  -------         ENDDO         
  C:1A27H         LINE#         21
  C:1A29H         LINE#         23
  C:1A31H         LINE#         24
  C:1A33H         LINE#         25
  C:1A33H         LINE#         26
  -------         ENDPROC       _?SYS_GET_SVEVENT
  -------         PROC          VIBINIT
  C:19A3H         LINE#         28
  C:19A3H         LINE#         29
  C:19A3H         LINE#         30
  C:19B1H         LINE#         31
  C:19BFH         LINE#         32
  -------         ENDPROC       VIBINIT
  -------         PROC          _?GETVIBACT
BL51 BANKED LINKER/LOCATER V6.22                                                      09/17/2025  16:47:22  PAGE 19


  -------         DO            
  i:0000H         SYMBOL        a
  -------         ENDDO         
  C:1A36H         LINE#         34
  C:1A38H         LINE#         36
  C:1A40H         LINE#         37
  C:1A42H         LINE#         38
  C:1A42H         LINE#         39
  -------         ENDPROC       _?GETVIBACT
  -------         ENDMOD        VIB

  -------         MODULE        UART2
  C:0000H         SYMBOL        _ICE_DUMMY_
  D:001DH         PUBLIC        ModBus_Interval_Min
  D:0080H         PUBLIC        P0
  C:09E9H         PUBLIC        Uart2_isr
  D:0090H         PUBLIC        P1
  D:00A0H         PUBLIC        P2
  D:00B0H         PUBLIC        P3
  D:00C0H         PUBLIC        P4
  D:00C8H         PUBLIC        P5
  D:00E8H         PUBLIC        P6
  D:00F8H         PUBLIC        P7
  D:00BAH         PUBLIC        P_SW2
  D:00A8H         PUBLIC        IE
  D:00DBH         PUBLIC        CCAPM1
  D:00B8H         PUBLIC        IP
  C:1AA2H         PUBLIC        _?nullfunc0
  D:00D8H         PUBLIC        CCON
  C:18BCH         PUBLIC        _SetUart2Rxd
  B:0090H.0       PUBLIC        P10
  B:0090H.1       PUBLIC        P11
  D:0098H         PUBLIC        SCON
  D:0088H         PUBLIC        TCON
  D:00AFH         PUBLIC        IE2
  D:008EH         PUBLIC        AUXR
  C:1A62H         PUBLIC        GetUart2TxStatus
  D:00D6H         PUBLIC        T2H
  B:00B0H.7       PUBLIC        M485_TxEn
  D:00D7H         PUBLIC        T2L
  C:18EDH         PUBLIC        _Uart2Print
  D:009BH         PUBLIC        S2BUF
  D:009AH         PUBLIC        S2CON
  C:1054H         PUBLIC        _Uart2Init
  X:008DH         PUBLIC        Uart2usage
  C:1A45H         PUBLIC        _?sys_get_Uart2RxdEvent
  X:008EH         PUBLIC        com2
  D:00D0H         PUBLIC        PSW
  -------         PROC          UART2_ISR
  C:09E9H         LINE#         19
  C:0A06H         LINE#         20
  C:0A0BH         LINE#         21
  C:0A0EH         LINE#         22
  C:0A42H         LINE#         24
  C:0A47H         LINE#         25
  C:0A4FH         LINE#         26
  C:0A4FH         LINE#         27
BL51 BANKED LINKER/LOCATER V6.22                                                      09/17/2025  16:47:22  PAGE 20


  C:0A4FH         LINE#         29
  C:0A57H         LINE#         30
  C:0A5AH         LINE#         31
  C:0A5DH         LINE#         32
  C:0A5FH         LINE#         33
  C:0A66H         LINE#         34
  C:0A68H         LINE#         35
  C:0A68H         LINE#         36
  C:0A73H         LINE#         37
  C:0A87H         LINE#         38
  C:0A9BH         LINE#         39
  C:0AAAH         LINE#         40
  C:0AB8H         LINE#         41
  C:0AEAH         LINE#         42
  C:0AF8H         LINE#         43
  C:0AF8H         LINE#         44
  C:0AFEH         LINE#         45
  C:0B01H         LINE#         47
  C:0B15H         LINE#         48
  C:0B29H         LINE#         49
  C:0B38H         LINE#         50
  C:0B46H         LINE#         51
  C:0B7EH         LINE#         52
  C:0B8CH         LINE#         53
  C:0B8CH         LINE#         55
  C:0BA1H         LINE#         56
  C:0BA7H         LINE#         57
  C:0BA9H         LINE#         58
  C:0BA9H         LINE#         59
  C:0BA9H         LINE#         60
  C:0BA9H         LINE#         61
  -------         ENDPROC       UART2_ISR
  -------         PROC          _?SYS_GET_UART2RXDEVENT
  -------         DO            
  i:0000H         SYMBOL        a
  -------         ENDDO         
  C:1A45H         LINE#         63
  C:1A47H         LINE#         65
  C:1A4FH         LINE#         66
  C:1A51H         LINE#         67
  C:1A51H         LINE#         68
  -------         ENDPROC       _?SYS_GET_UART2RXDEVENT
  -------         PROC          _?NULLFUNC0
  C:1AA2H         LINE#         70
  -------         ENDPROC       _?NULLFUNC0
  -------         PROC          _UART2INIT
  D:0033H         SYMBOL        band
  D:0037H         SYMBOL        Uart2mode
  C:1054H         LINE#         72
  C:105CH         LINE#         73
  C:105CH         LINE#         76
  C:1062H         LINE#         77
  C:1066H         LINE#         78
  C:1069H         LINE#         79
  C:106FH         LINE#         80
  C:107DH         LINE#         81
  C:1080H         LINE#         82
BL51 BANKED LINKER/LOCATER V6.22                                                      09/17/2025  16:47:22  PAGE 21


  C:1082H         LINE#         83
  C:1084H         LINE#         84
  C:1086H         LINE#         86
  C:1088H         LINE#         87
  C:109CH         LINE#         88
  C:10A3H         LINE#         89
  C:10A9H         LINE#         90
  C:10A9H         LINE#         92
  C:10ACH         LINE#         93
  C:10CBH         LINE#         94
  C:10FAH         LINE#         95
  C:10FDH         LINE#         96
  C:1100H         LINE#         97
  C:110EH         LINE#         98
  -------         ENDPROC       _UART2INIT
  -------         PROC          _SETUART2RXD
  D:0001H         SYMBOL        RxdPt
  D:0004H         SYMBOL        Nmax
  D:0038H         SYMBOL        matchhead
  D:003BH         SYMBOL        matchheadsize
  C:18BCH         LINE#         100
  C:18BCH         LINE#         101
  C:18C7H         LINE#         102
  C:18CDH         LINE#         103
  C:18D7H         LINE#         104
  C:18E5H         LINE#         105
  C:18E7H         LINE#         106
  C:18ECH         LINE#         107
  -------         ENDPROC       _SETUART2RXD
  -------         PROC          _UART2PRINT
  D:0001H         SYMBOL        pt
  D:0004H         SYMBOL        num
  C:18EDH         LINE#         109
  C:18EDH         LINE#         110
  C:18F3H         LINE#         111
  C:18F3H         LINE#         112
  C:18FBH         LINE#         114
  C:1906H         LINE#         115
  C:190BH         LINE#         116
  C:1911H         LINE#         117
  C:1915H         LINE#         119
  C:1918H         LINE#         120
  C:191BH         LINE#         121
  C:191BH         LINE#         122
  C:191DH         LINE#         123
  -------         ENDPROC       _UART2PRINT
  -------         PROC          GETUART2TXSTATUS
  C:1A62H         LINE#         125
  C:1A62H         LINE#         126
  C:1A6AH         LINE#         127
  C:1A6CH         LINE#         128
  -------         ENDPROC       GETUART2TXSTATUS
  -------         ENDMOD        UART2

  -------         MODULE        ?C?CLDOPTR
  C:0800H         PUBLIC        ?C?CLDOPTR
  -------         ENDMOD        ?C?CLDOPTR
BL51 BANKED LINKER/LOCATER V6.22                                                      09/17/2025  16:47:22  PAGE 22



  -------         MODULE        ?C?CSTOPTR
  C:082DH         PUBLIC        ?C?CSTOPTR
  -------         ENDMOD        ?C?CSTOPTR

  -------         MODULE        ?C?IMUL
  C:084FH         PUBLIC        ?C?IMUL
  -------         ENDMOD        ?C?IMUL

  -------         MODULE        ?C?ILDIX
  C:0861H         PUBLIC        ?C?ILDIX
  -------         ENDMOD        ?C?ILDIX

  -------         MODULE        ?C?LMUL
  C:0877H         PUBLIC        ?C?LMUL
  -------         ENDMOD        ?C?LMUL

  -------         MODULE        ?C?ULDIV
  C:0902H         PUBLIC        ?C?ULDIV
  -------         ENDMOD        ?C?ULDIV

  -------         MODULE        ?C?SLDIV
  C:1789H         PUBLIC        ?C?SLDIV
  -------         ENDMOD        ?C?SLDIV

  -------         MODULE        ?C?ULSHR
  C:0994H         PUBLIC        ?C?ULSHR
  -------         ENDMOD        ?C?ULSHR

  -------         MODULE        ?C?SLSHR
  C:09A7H         PUBLIC        ?C?SLSHR
  -------         ENDMOD        ?C?SLSHR

  -------         MODULE        ?C?LLDCODE
  C:09BBH         PUBLIC        ?C?LLDCODE
  -------         ENDMOD        ?C?LLDCODE

  -------         MODULE        ?C?LSTXDATA
  C:09CBH         PUBLIC        ?C?LSTXDATA
  -------         ENDMOD        ?C?LSTXDATA

  -------         MODULE        ?C?OFFXADD
  C:09D7H         PUBLIC        ?C?OFFXADD
  -------         ENDMOD        ?C?OFFXADD

  -------         MODULE        ?C?ICALL
  C:09E3H         PUBLIC        ?C?ICALL
  C:09E7H         PUBLIC        ?C?ICALL2
  -------         ENDMOD        ?C?ICALL

  -------         MODULE        ?C_IBP
  D:001EH         PUBLIC        ?C_IBP
  -------         ENDMOD        ?C_IBP

*** WARNING L16: UNCALLED SEGMENT, IGNORED FOR OVERLAY PROCESS
    SEGMENT: ?PR?_SEG7SETMODE?DISPLAYER

BL51 BANKED LINKER/LOCATER V6.22                                                      09/17/2025  16:47:22  PAGE 23


*** WARNING L16: UNCALLED SEGMENT, IGNORED FOR OVERLAY PROCESS
    SEGMENT: ?PR?_LEDSETMODE?DISPLAYER

*** WARNING L16: UNCALLED SEGMENT, IGNORED FOR OVERLAY PROCESS
    SEGMENT: ?PR?GETULTRASONIC?SYS

*** WARNING L16: UNCALLED SEGMENT, IGNORED FOR OVERLAY PROCESS
    SEGMENT: ?PR?GETBEEPTIMER?SYS

*** WARNING L16: UNCALLED SEGMENT, IGNORED FOR OVERLAY PROCESS
    SEGMENT: ?PR?_SETBEEPTIMER?SYS

*** WARNING L16: UNCALLED SEGMENT, IGNORED FOR OVERLAY PROCESS
    SEGMENT: ?PR?_SETCCP0?SYS

*** WARNING L16: UNCALLED SEGMENT, IGNORED FOR OVERLAY PROCESS
    SEGMENT: ?PR?CLRBEEPPIN?SYS

*** WARNING L16: UNCALLED SEGMENT, IGNORED FOR OVERLAY PROCESS
    SEGMENT: ?PR?GETSYSPERFORMANCE?SYS

*** WARNING L16: UNCALLED SEGMENT, IGNORED FOR OVERLAY PROCESS
    SEGMENT: ?PR?GETUART2TXSTATUS?UART2

******************************************************************************
* RESTRICTED VERSION WITH 0800H BYTE CODE SIZE LIMIT; USED: 0233H BYTE (27%) *
******************************************************************************

Program Size: data=76.7 xdata=176 code=4783
LINK/LOCATE RUN COMPLETE.  9 WARNING(S),  0 ERROR(S)
