BL51 BANKED LINKER/LOCATER V6.22                                                        09/18/2025  12:55:47  PAGE 1


BL51 BANKED LINKER/LOCATER V6.22, INVOKED BY:
D:\KEIL\C51\BIN\BL51.EXE main.obj, .\STCBSP_V3.6b.LIB TO test RAMSIZE (256)


MEMORY MODEL: SMALL


INPUT MODULES INCLUDED:
  main.obj (MAIN)
  .\STCBSP_V3.6b.LIB (BEEP)
  .\STCBSP_V3.6b.LIB (DISPLAYER)
  .\STCBSP_V3.6b.LIB (HALL)
  .\STCBSP_V3.6b.LIB (KEY)
  .\STCBSP_V3.6b.LIB (SYS)
  .\STCBSP_V3.6b.LIB (VIB)
  .\STCBSP_V3.6b.LIB (MUSIC)
  .\STCBSP_V3.6b.LIB (UART2)
  D:\KEIL\C51\LIB\C51S.LIB (?C_STARTUP)
  D:\KEIL\C51\LIB\C51S.LIB (?C?CLDOPTR)
  D:\KEIL\C51\LIB\C51S.LIB (?C?CSTOPTR)
  D:\KEIL\C51\LIB\C51S.LIB (?C?IMUL)
  D:\KEIL\C51\LIB\C51S.LIB (?C?UIDIV)
  D:\KEIL\C51\LIB\C51S.LIB (?C?IILDX)
  D:\KEIL\C51\LIB\C51S.LIB (?C?ILDIX)
  D:\KEIL\C51\LIB\C51S.LIB (?C?LMUL)
  D:\KEIL\C51\LIB\C51S.LIB (?C?ULDIV)
  D:\KEIL\C51\LIB\C51S.LIB (?C?SLDIV)
  D:\KEIL\C51\LIB\C51S.LIB (?C?ULSHR)
  D:\KEIL\C51\LIB\C51S.LIB (?C?SLSHR)
  D:\KEIL\C51\LIB\C51S.LIB (?C?LLDCODE)
  D:\KEIL\C51\LIB\C51S.LIB (?C?LSTXDATA)
  D:\KEIL\C51\LIB\C51S.LIB (?C?OFFXADD)
  D:\KEIL\C51\LIB\C51S.LIB (?C?ICALL)
  D:\KEIL\C51\LIB\C51S.LIB (?C_IBP)
  D:\KEIL\C51\LIB\C51S.LIB (?C_INIT)


LINK MAP OF MODULE:  test (MAIN)


            TYPE    BASE      LENGTH    RELOCATION   SEGMENT NAME
            -----------------------------------------------------

            * * * * * * *   D A T A   M E M O R Y   * * * * * * *
            REG     0000H     0008H     ABSOLUTE     "REG BANK 0"
            DATA    0008H     0017H     UNIT         ?DT?MAIN
            DATA    001FH     0001H     UNIT         ?DT?HALL
            BIT     0020H.0   0001H.7   UNIT         ?BI?SYS
            BIT     0021H.7   0000H.1   UNIT         ?BI?MUSIC
            DATA    0022H     0011H     UNIT         ?DT?SYS
            DATA    0033H     000AH     UNIT         _DATA_GROUP_
            DATA    003DH     0008H     UNIT         ?DT?_SEG7SETMODE?DISPLAYER
            DATA    0045H     0008H     UNIT         ?DT?_LEDSETMODE?DISPLAYER
            DATA    004DH     0002H     UNIT         ?DT?GETULTRASONIC?SYS
            DATA    004FH     0001H     UNIT         ?DT?UART2
            DATA    0050H     0001H     UNIT         ?C?LIB_DATA
            IDATA   0051H     0001H     UNIT         ?STACK

BL51 BANKED LINKER/LOCATER V6.22                                                      09/18/2025  12:55:47  PAGE 2


            * * * * * * *  X D A T A   M E M O R Y  * * * * * * *
            XDATA   0000H     006FH     UNIT         ?XD?SYS
            XDATA   006FH     001EH     UNIT         ?XD?DISPLAYER
            XDATA   008DH     0016H     UNIT         ?XD?UART2
            XDATA   00A3H     0010H     UNIT         ?XD?MUSIC
            XDATA   00B3H     000BH     UNIT         ?XD?KEY
            XDATA   00BEH     0004H     UNIT         ?XD?HALL
            XDATA   00C2H     0002H     UNIT         ?XD?VIB

            * * * * * * *   C O D E   M E M O R Y   * * * * * * *
            CODE    0000H     0003H     ABSOLUTE     
                    0003H     0008H                  *** GAP ***
            CODE    000BH     0003H     ABSOLUTE     
                    000EH     002DH                  *** GAP ***
            CODE    003BH     0003H     ABSOLUTE     
                    003EH     0005H                  *** GAP ***
            CODE    0043H     0003H     ABSOLUTE     
                    0046H     07BAH                  *** GAP ***
            CODE    0800H     0302H     UNIT         ?PR?_?SYS_MUSIC_DRV?MUSIC
            CODE    0B02H     0254H     UNIT         ?C?LIB_CODE
            CODE    0D56H     01DBH     UNIT         ?PR?UART2_ISR?UART2
            CODE    0F31H     017BH     UNIT         ?PR?_?SYS_DISPLAY_DRV?DISPLAYER
            CODE    10ACH     0128H     UNIT         ?C_INITSEG
            CODE    11D4H     0127H     UNIT         ?PR?_?SYS_KEY_DRV?KEY
            CODE    12FBH     0126H     UNIT         ?CO?MUSIC
            CODE    1421H     00F1H     UNIT         ?PR?SYS_TASK_1MS?SYS
            CODE    1512H     00BBH     UNIT         ?PR?_UART2INIT?UART2
            CODE    15CDH     00AEH     UNIT         ?CO?MAIN
            CODE    167BH     00ACH     UNIT         ?PR?MAIN?MAIN
            CODE    1727H     00AAH     UNIT         ?PR?_PLAYTONE?MUSIC
            CODE    17D1H     00A8H     UNIT         ?PR?SYS_CCP_ISR?SYS
            CODE    1879H     009BH     UNIT         ?PR?MYDISPLAY_CALLBACK?MAIN
            CODE    1914H     0093H     UNIT         ?PR?SYS_TASK_10MS?SYS
            CODE    19A7H     008FH     UNIT         ?PR?MYLED_CALLBACK?MAIN
            CODE    1A36H     008FH     UNIT         ?PR?_SEG7SETMODE?DISPLAYER
            CODE    1AC5H     008FH     UNIT         ?PR?_LEDSETMODE?DISPLAYER
            CODE    1B54H     008CH     UNIT         ?C_C51STARTUP
            CODE    1BE0H     008BH     UNIT         ?PR?SYS_TASK_IR?SYS
            CODE    1C6BH     0087H     UNIT         ?PR?BEEP_CHECK?MAIN
            CODE    1CF2H     0081H     UNIT         ?PR?_SETMUSIC?MUSIC
            CODE    1D73H     007DH     UNIT         ?PR?_SETEVENTCALLBACK?SYS
            CODE    1DF0H     0078H     UNIT         ?PR?_SETBEEP?BEEP
            CODE    1E68H     0053H     UNIT         ?PR?GETULTRASONIC?SYS
            CODE    1EBBH     0052H     UNIT         ?PR?SYS_TIMER0_ISR?SYS
            CODE    1F0DH     0047H     UNIT         ?PR?SYS_TIMER0_INIT?SYS
            CODE    1F54H     0044H     UNIT         ?C?LDIV
            CODE    1F98H     0043H     UNIT         ?PR?_?SYS_HALL_DRV?HALL
            CODE    1FDBH     0042H     UNIT         ?PR?MYHALL_CALLBACK?MAIN
            CODE    201DH     0040H     UNIT         ?PR?_GETKEYACT?KEY
            CODE    205DH     003FH     UNIT         ?PR?SYS_TASK_100MS?SYS
            CODE    209CH     003EH     UNIT         ?PR?MYSTC_OS?SYS
            CODE    20DAH     0031H     UNIT         ?PR?_SETUART2RXD?UART2
            CODE    210BH     0031H     UNIT         ?PR?_UART2PRINT?UART2
            CODE    213CH     002BH     UNIT         ?PR?SYS_TASK_1S?SYS
            CODE    2167H     0028H     UNIT         ?PR?_?SYS_BEEP_DRV?BEEP
            CODE    218FH     0028H     UNIT         ?PR?_SETPLAYERMODE?MUSIC
            CODE    21B7H     0020H     UNIT         ?PR?BEEPINIT?BEEP
BL51 BANKED LINKER/LOCATER V6.22                                                      09/18/2025  12:55:47  PAGE 3


            CODE    21D7H     0020H     UNIT         ?PR?_SEG7PRINT?DISPLAYER
            CODE    21F7H     001DH     UNIT         ?PR?MYVIB_CALLBACK?MAIN
            CODE    2214H     001DH     UNIT         ?PR?HALLINIT?HALL
            CODE    2231H     001DH     UNIT         ?PR?KEYINIT?KEY
            CODE    224EH     001DH     UNIT         ?PR?VIBINIT?VIB
            CODE    226BH     001BH     UNIT         ?PR?MYUART2_CALLBACK?MAIN
            CODE    2286H     001BH     UNIT         ?PR?MYKEY_CALLBACK?MAIN
            CODE    22A1H     001BH     UNIT         ?PR?DISPLAYERINIT?DISPLAYER
            CODE    22BCH     0011H     UNIT         ?PR?_SETCCP0?SYS
            CODE    22CDH     000FH     UNIT         ?PR?_?SYS_GET_HALLEVENT?HALL
            CODE    22DCH     000FH     UNIT         ?PR?_?SYS_GET_KEYEVENT?KEY
            CODE    22EBH     000FH     UNIT         ?PR?_?SYS_GET_SVEVENT?VIB
            CODE    22FAH     000FH     UNIT         ?PR?_?GETVIBACT?VIB
            CODE    2309H     000FH     UNIT         ?PR?MUSICPLAYERINIT?MUSIC
            CODE    2318H     000FH     UNIT         ?PR?_?SYS_GET_UART2RXDEVENT?UART2
            CODE    2327H     000EH     UNIT         ?PR?_?SYS_SV_DRV?VIB
            CODE    2335H     000CH     UNIT         ?PR?GETBEEPSTATUS?BEEP
            CODE    2341H     000BH     UNIT         ?PR?GETUART2TXSTATUS?UART2
            CODE    234CH     0009H     UNIT         ?PR?_SETDISPLAYERAREA?DISPLAYER
            CODE    2355H     0009H     UNIT         ?PR?GETBEEPTIMER?SYS
            CODE    235EH     0009H     UNIT         ?PR?_SETBEEPTIMER?SYS
            CODE    2367H     0007H     UNIT         ?PR?GETSYSPERFORMANCE?SYS
            CODE    236EH     0006H     UNIT         ?PR?_LEDPRINT?DISPLAYER
            CODE    2374H     0006H     UNIT         ?PR?GETHALLACT?HALL
            CODE    237AH     0006H     UNIT         ?PR?MYSTC_INIT?SYS
            CODE    2380H     0006H     UNIT         ?PR?GETPLAYERMODE?MUSIC
            CODE    2386H     0003H     UNIT         ?PR?MY10MS_CALLBACK?MAIN
            CODE    2389H     0003H     UNIT         ?PR?_?RET0FUNC?SYS
            CODE    238CH     0003H     UNIT         ?PR?CLRBEEPPIN?SYS
            CODE    238FH     0001H     UNIT         ?PR?_?NULLFUNC?SYS
            CODE    2390H     0001H     UNIT         ?PR?_?NULLFUNC0?UART2



OVERLAY MAP OF MODULE:   test (MAIN)


SEGMENT                                     DATA_GROUP 
  +--> CALLED SEGMENT                     START    LENGTH
---------------------------------------------------------
?C_C51STARTUP                             -----    -----
  +--> ?PR?MAIN?MAIN
  +--> ?C_INITSEG

?PR?MAIN?MAIN                             -----    -----
  +--> ?PR?_UART2INIT?UART2
  +--> ?PR?DISPLAYERINIT?DISPLAYER
  +--> ?PR?KEYINIT?KEY
  +--> ?PR?VIBINIT?VIB
  +--> ?PR?MUSICPLAYERINIT?MUSIC
  +--> ?PR?BEEPINIT?BEEP
  +--> ?PR?HALLINIT?HALL
  +--> ?PR?_SETDISPLAYERAREA?DISPLAYER
  +--> ?PR?_SETUART2RXD?UART2
  +--> ?CO?MAIN
  +--> ?PR?_SETMUSIC?MUSIC
  +--> ?PR?MYHALL_CALLBACK?MAIN
BL51 BANKED LINKER/LOCATER V6.22                                                      09/18/2025  12:55:47  PAGE 4


  +--> ?PR?_SETEVENTCALLBACK?SYS
  +--> ?PR?MYVIB_CALLBACK?MAIN
  +--> ?PR?MYKEY_CALLBACK?MAIN
  +--> ?PR?MYUART2_CALLBACK?MAIN
  +--> ?PR?MYDISPLAY_CALLBACK?MAIN
  +--> ?PR?MYLED_CALLBACK?MAIN
  +--> ?PR?MY10MS_CALLBACK?MAIN
  +--> ?PR?MYSTC_INIT?SYS
  +--> ?PR?MYSTC_OS?SYS

?PR?_UART2INIT?UART2                      0033H    0005H
  +--> ?PR?_?NULLFUNC0?UART2
  +--> ?CO?MAIN
  +--> ?PR?_?SYS_GET_UART2RXDEVENT?UART2

?PR?DISPLAYERINIT?DISPLAYER               -----    -----
  +--> ?PR?_?SYS_DISPLAY_DRV?DISPLAYER

?PR?_?SYS_DISPLAY_DRV?DISPLAYER           -----    -----
  +--> ?CO?MAIN

?PR?KEYINIT?KEY                           -----    -----
  +--> ?PR?_?SYS_GET_KEYEVENT?KEY
  +--> ?PR?_?SYS_KEY_DRV?KEY

?PR?VIBINIT?VIB                           -----    -----
  +--> ?PR?_?SYS_GET_SVEVENT?VIB
  +--> ?PR?_?SYS_SV_DRV?VIB

?PR?MUSICPLAYERINIT?MUSIC                 -----    -----
  +--> ?PR?_?SYS_MUSIC_DRV?MUSIC

?PR?_?SYS_MUSIC_DRV?MUSIC                 -----    -----
  +--> ?PR?GETBEEPSTATUS?BEEP
  +--> ?PR?_SEG7PRINT?DISPLAYER
  +--> ?PR?_LEDPRINT?DISPLAYER
  +--> ?PR?_PLAYTONE?MUSIC

?PR?GETBEEPSTATUS?BEEP                    -----    -----
  +--> ?PR?GETBEEPTIMER?SYS

?PR?_SEG7PRINT?DISPLAYER                  0035H    0008H

?PR?_PLAYTONE?MUSIC                       0033H    0006H
  +--> ?PR?GETBEEPSTATUS?BEEP
  +--> ?CO?MUSIC
  +--> ?PR?_SETBEEP?BEEP

?PR?_SETBEEP?BEEP                         0039H    0004H
  +--> ?PR?GETBEEPTIMER?SYS
  +--> ?PR?_SETBEEPTIMER?SYS
  +--> ?CO?MAIN
  +--> ?PR?_SETCCP0?SYS
  +--> ?PR?CLRBEEPPIN?SYS

?PR?BEEPINIT?BEEP                         -----    -----
  +--> ?PR?CLRBEEPPIN?SYS
BL51 BANKED LINKER/LOCATER V6.22                                                      09/18/2025  12:55:47  PAGE 5


  +--> ?PR?_?SYS_BEEP_DRV?BEEP

?PR?_?SYS_BEEP_DRV?BEEP                   -----    -----
  +--> ?PR?GETBEEPTIMER?SYS
  +--> ?PR?_SETBEEPTIMER?SYS

?PR?HALLINIT?HALL                         -----    -----
  +--> ?PR?_?SYS_GET_HALLEVENT?HALL
  +--> ?PR?_?SYS_HALL_DRV?HALL

?PR?_SETUART2RXD?UART2                    0033H    000AH

?PR?_SETMUSIC?MUSIC                       0033H    0008H

?PR?MYHALL_CALLBACK?MAIN                  0033H    0001H
  +--> ?PR?GETHALLACT?HALL
  +--> ?PR?_UART2PRINT?UART2

?PR?_SETEVENTCALLBACK?SYS                 0033H    0003H

?PR?MYVIB_CALLBACK?MAIN                   -----    -----
  +--> ?PR?_?GETVIBACT?VIB
  +--> ?PR?_UART2PRINT?UART2

?PR?MYKEY_CALLBACK?MAIN                   -----    -----
  +--> ?PR?_GETKEYACT?KEY
  +--> ?PR?_SETPLAYERMODE?MUSIC

?PR?MYUART2_CALLBACK?MAIN                 0033H    0001H

?PR?MYDISPLAY_CALLBACK?MAIN               0033H    0002H
  +--> ?PR?_SEG7PRINT?DISPLAYER

?PR?MYLED_CALLBACK?MAIN                   -----    -----
  +--> ?PR?_LEDPRINT?DISPLAYER

?PR?MY10MS_CALLBACK?MAIN                  -----    -----
  +--> ?PR?BEEP_CHECK?MAIN

?PR?BEEP_CHECK?MAIN                       -----    -----
  +--> ?PR?GETBEEPSTATUS?BEEP
  +--> ?PR?_SETBEEP?BEEP

?PR?MYSTC_INIT?SYS                        -----    -----
  +--> ?PR?SYS_TIMER0_INIT?SYS

?PR?SYS_TIMER0_INIT?SYS                   -----    -----
  +--> ?CO?MAIN

?PR?MYSTC_OS?SYS                          -----    -----
  +--> ?PR?SYS_TASK_IR?SYS
  +--> ?PR?SYS_TASK_1MS?SYS
  +--> ?PR?SYS_TASK_10MS?SYS
  +--> ?PR?SYS_TASK_100MS?SYS
  +--> ?PR?SYS_TASK_1S?SYS

?C_INITSEG                                -----    -----
BL51 BANKED LINKER/LOCATER V6.22                                                      09/18/2025  12:55:47  PAGE 6


  +--> ?PR?_?NULLFUNC?SYS
  +--> ?PR?_?RET0FUNC?SYS



SYMBOL TABLE OF MODULE:  test (MAIN)

  VALUE           TYPE          NAME
  ----------------------------------

  -------         MODULE        MAIN
  C:0000H         SYMBOL        _ICE_DUMMY_
  C:1C6BH         PUBLIC        beep_check
  D:0080H         PUBLIC        P0
  D:0090H         PUBLIC        P1
  D:00A0H         PUBLIC        P2
  D:00B0H         PUBLIC        P3
  D:00C0H         PUBLIC        P4
  D:00C8H         PUBLIC        P5
  D:00E8H         PUBLIC        P6
  D:00F8H         PUBLIC        P7
  D:00A8H         PUBLIC        IE
  D:0008H         PUBLIC        interp
  D:00B8H         PUBLIC        IP
  C:21F7H         PUBLIC        myVib_callback
  C:2386H         PUBLIC        my10mS_callback
  D:00D8H         PUBLIC        CCON
  C:2286H         PUBLIC        myKey_callback
  C:15FFH         PUBLIC        pokemon_get_DAZE
  C:167BH         PUBLIC        main
  D:000AH         PUBLIC        count
  C:15CDH         PUBLIC        SysClock
  D:000CH         PUBLIC        led_flow_reverse
  D:0098H         PUBLIC        SCON
  D:0088H         PUBLIC        TCON
  D:000EH         PUBLIC        uart_data
  D:0011H         PUBLIC        LEDchange
  D:0013H         PUBLIC        data_recieved
  C:226BH         PUBLIC        myUart2_callback
  C:19A7H         PUBLIC        myLED_callback
  C:15D1H         PUBLIC        decode_table
  C:1879H         PUBLIC        myDisplay_callback
  D:0018H         PUBLIC        matched_data
  D:001AH         PUBLIC        led_val
  D:001BH         PUBLIC        a
  D:00D0H         PUBLIC        PSW
  C:1FDBH         PUBLIC        myHall_callback
  D:001DH         PUBLIC        LEDmode
  -------         PROC          MYUART2_CALLBACK
  -------         DO            
  D:0007H         SYMBOL        flag
  D:0033H         SYMBOL        menu_select
  -------         ENDDO         
  C:226BH         LINE#         104
  C:226BH         LINE#         105
  C:226BH         LINE#         106
  C:226DH         LINE#         107
BL51 BANKED LINKER/LOCATER V6.22                                                      09/18/2025  12:55:47  PAGE 7


  C:2270H         LINE#         109
  C:2278H         LINE#         110
  C:227FH         LINE#         112
  C:2285H         LINE#         113
  -------         ENDPROC       MYUART2_CALLBACK
  -------         PROC          MYDISPLAY_CALLBACK
  -------         DO            
  D:0033H         SYMBOL        flag
  D:0034H         SYMBOL        menu_select
  -------         ENDDO         
  C:1879H         LINE#         114
  C:1879H         LINE#         115
  C:1879H         LINE#         116
  C:187CH         LINE#         117
  C:187FH         LINE#         118
  C:1883H         LINE#         119
  C:1883H         LINE#         120
  C:1887H         LINE#         121
  C:1889H         LINE#         122
  C:188EH         LINE#         123
  C:18A3H         LINE#         124
  C:18A8H         LINE#         125
  C:18BDH         LINE#         126
  C:18C2H         LINE#         127
  C:18D9H         LINE#         128
  C:18DFH         LINE#         129
  C:18F4H         LINE#         130
  C:18F6H         LINE#         131
  C:18FBH         LINE#         132
  C:1913H         LINE#         133
  -------         ENDPROC       MYDISPLAY_CALLBACK
  -------         PROC          MYKEY_CALLBACK
  C:2286H         LINE#         134
  C:2286H         LINE#         135
  C:2286H         LINE#         136
  C:228EH         LINE#         137
  C:228EH         LINE#         138
  C:2293H         LINE#         139
  C:2293H         LINE#         140
  C:229BH         LINE#         141
  C:229BH         LINE#         142
  C:22A0H         LINE#         143
  C:22A0H         LINE#         144
  -------         ENDPROC       MYKEY_CALLBACK
  -------         PROC          BEEP_CHECK
  C:1C6BH         LINE#         145
  C:1C6BH         LINE#         146
  C:1C6BH         LINE#         147
  C:1C77H         LINE#         148
  C:1C77H         LINE#         149
  C:1C7FH         LINE#         150
  C:1C7FH         LINE#         152
  C:1C8CH         LINE#         153
  C:1C8CH         LINE#         154
  C:1C91H         LINE#         155
  C:1C91H         LINE#         157
  C:1C9FH         LINE#         158
BL51 BANKED LINKER/LOCATER V6.22                                                      09/18/2025  12:55:47  PAGE 8


  C:1C9FH         LINE#         159
  C:1CA4H         LINE#         160
  C:1CA6H         LINE#         161
  C:1CB4H         LINE#         162
  C:1CB4H         LINE#         163
  C:1CB9H         LINE#         164
  C:1CBBH         LINE#         165
  C:1CC9H         LINE#         166
  C:1CC9H         LINE#         167
  C:1CD3H         LINE#         168
  C:1CD3H         LINE#         169
  C:1CE1H         LINE#         170
  C:1CE1H         LINE#         171
  C:1CEBH         LINE#         172
  C:1CF1H         LINE#         173
  C:1CF1H         LINE#         174
  -------         ENDPROC       BEEP_CHECK
  -------         PROC          MYLED_CALLBACK
  C:19A7H         LINE#         175
  C:19A7H         LINE#         176
  C:19A7H         LINE#         178
  C:19B7H         LINE#         179
  C:19B7H         LINE#         180
  C:19B9H         LINE#         181
  C:19BBH         LINE#         182
  C:19CDH         LINE#         183
  C:19CDH         LINE#         184
  C:19CFH         LINE#         185
  C:19D1H         LINE#         186
  C:19D9H         LINE#         187
  C:19D9H         LINE#         188
  C:19DEH         LINE#         189
  C:19DEH         LINE#         190
  C:19EDH         LINE#         193
  C:19FCH         LINE#         194
  C:19FCH         LINE#         195
  C:1A02H         LINE#         196
  C:1A03H         LINE#         197
  C:1A14H         LINE#         198
  C:1A14H         LINE#         199
  C:1A1AH         LINE#         200
  C:1A1BH         LINE#         201
  C:1A26H         LINE#         202
  C:1A26H         LINE#         203
  C:1A35H         LINE#         204
  C:1A35H         LINE#         205
  -------         ENDPROC       MYLED_CALLBACK
  -------         PROC          MY10MS_CALLBACK
  C:2386H         LINE#         206
  C:2386H         LINE#         207
  C:2386H         LINE#         209
  -------         ENDPROC       MY10MS_CALLBACK
  -------         PROC          MYVIB_CALLBACK
  -------         DO            
  D:0007H         SYMBOL        k
  -------         ENDDO         
  C:21F7H         LINE#         211
BL51 BANKED LINKER/LOCATER V6.22                                                      09/18/2025  12:55:47  PAGE 9


  C:21F7H         LINE#         212
  C:21F7H         LINE#         213
  C:21FAH         LINE#         214
  C:21FDH         LINE#         215
  C:21FDH         LINE#         216
  C:2200H         LINE#         217
  C:2203H         LINE#         218
  C:2206H         LINE#         219
  C:2213H         LINE#         220
  C:2213H         LINE#         221
  -------         ENDPROC       MYVIB_CALLBACK
  -------         PROC          MYHALL_CALLBACK
  -------         DO            
  D:0033H         SYMBOL        k
  -------         ENDDO         
  C:1FDBH         LINE#         222
  C:1FDBH         LINE#         223
  C:1FDBH         LINE#         224
  C:1FE0H         LINE#         225
  C:1FE5H         LINE#         226
  C:1FE5H         LINE#         227
  C:1FE8H         LINE#         228
  C:1FEBH         LINE#         229
  C:1FEEH         LINE#         230
  C:1FFBH         LINE#         232
  C:2000H         LINE#         233
  C:2001H         LINE#         234
  C:2006H         LINE#         235
  C:2006H         LINE#         236
  C:2009H         LINE#         237
  C:200CH         LINE#         238
  C:200FH         LINE#         239
  C:201CH         LINE#         240
  C:201CH         LINE#         241
  -------         ENDPROC       MYHALL_CALLBACK
  -------         PROC          MAIN
  C:167BH         LINE#         243
  C:167BH         LINE#         244
  C:167BH         LINE#         245
  C:1687H         LINE#         246
  C:168AH         LINE#         247
  C:168DH         LINE#         248
  C:1690H         LINE#         249
  C:1693H         LINE#         250
  C:1696H         LINE#         251
  C:1699H         LINE#         252
  C:16A0H         LINE#         254
  C:16BCH         LINE#         256
  C:16D2H         LINE#         258
  C:16DDH         LINE#         259
  C:16E8H         LINE#         260
  C:16F3H         LINE#         261
  C:16FEH         LINE#         262
  C:1709H         LINE#         263
  C:1714H         LINE#         264
  C:171FH         LINE#         266
  C:1722H         LINE#         267
BL51 BANKED LINKER/LOCATER V6.22                                                      09/18/2025  12:55:47  PAGE 10


  C:1722H         LINE#         268
  C:1722H         LINE#         269
  C:1725H         LINE#         270
  -------         ENDPROC       MAIN
  -------         ENDMOD        MAIN

  -------         MODULE        BEEP
  C:0000H         SYMBOL        _ICE_DUMMY_
  D:0080H         PUBLIC        P0
  D:00B2H         PUBLIC        P3M0
  D:0090H         PUBLIC        P1
  D:00B1H         PUBLIC        P3M1
  D:00A0H         PUBLIC        P2
  D:00B0H         PUBLIC        P3
  D:00C0H         PUBLIC        P4
  D:00C8H         PUBLIC        P5
  D:00E8H         PUBLIC        P6
  D:00F8H         PUBLIC        P7
  D:00F9H         PUBLIC        CH
  C:2167H         PUBLIC        _?sys_beep_drv
  D:00A8H         PUBLIC        IE
  D:00E9H         PUBLIC        CL
  C:21B7H         PUBLIC        BeepInit
  B:00D8H.6       PUBLIC        CR
  D:00DAH         PUBLIC        CCAPM0
  D:00B8H         PUBLIC        IP
  D:00D9H         PUBLIC        CMOD
  D:00D8H         PUBLIC        CCON
  C:2335H         PUBLIC        GetBeepStatus
  C:1DF0H         PUBLIC        _SetBeep
  D:0098H         PUBLIC        SCON
  D:0088H         PUBLIC        TCON
  D:00D0H         PUBLIC        PSW
  B:00D8H.0       PUBLIC        CCF0
  -------         PROC          _?SYS_BEEP_DRV
  -------         DO            
  i:0000H         SYMBOL        a
  -------         ENDDO         
  C:2167H         LINE#         11
  C:216BH         LINE#         13
  C:2175H         LINE#         14
  C:218AH         LINE#         15
  -------         ENDPROC       _?SYS_BEEP_DRV
  -------         PROC          BEEPINIT
  C:21B7H         LINE#         17
  C:21B7H         LINE#         18
  C:21B7H         LINE#         19
  C:21BAH         LINE#         20
  C:21BDH         LINE#         21
  C:21C0H         LINE#         22
  C:21C3H         LINE#         23
  C:21C6H         LINE#         24
  C:21C8H         LINE#         25
  C:21D6H         LINE#         26
  -------         ENDPROC       BEEPINIT
  -------         PROC          _SETBEEP
  D:0039H         SYMBOL        Beep_freq
BL51 BANKED LINKER/LOCATER V6.22                                                      09/18/2025  12:55:47  PAGE 11


  D:003BH         SYMBOL        Beep_time
  -------         DO            
  D:0002H         SYMBOL        a
  D:0004H         SYMBOL        b
  -------         ENDDO         
  C:1DF0H         LINE#         28
  C:1DF8H         LINE#         29
  C:1DF8H         LINE#         31
  C:1DFFH         LINE#         32
  C:1E06H         LINE#         33
  C:1E11H         LINE#         34
  C:1E3AH         LINE#         35
  C:1E4EH         LINE#         36
  C:1E55H         LINE#         37
  C:1E57H         LINE#         38
  C:1E5AH         LINE#         39
  C:1E5CH         LINE#         41
  C:1E5FH         LINE#         42
  C:1E62H         LINE#         43
  C:1E62H         LINE#         44
  C:1E65H         LINE#         45
  C:1E65H         LINE#         46
  C:1E67H         LINE#         47
  -------         ENDPROC       _SETBEEP
  -------         PROC          GETBEEPSTATUS
  C:2335H         LINE#         49
  C:2335H         LINE#         50
  C:233EH         LINE#         51
  C:2340H         LINE#         52
  -------         ENDPROC       GETBEEPSTATUS
  -------         ENDMOD        BEEP

  -------         MODULE        DISPLAYER
  C:0000H         SYMBOL        _ICE_DUMMY_
  D:0093H         PUBLIC        P0M1
  D:0096H         PUBLIC        P2M0
  D:0080H         PUBLIC        P0
  D:0095H         PUBLIC        P2M1
  D:0090H         PUBLIC        P1
  D:00A0H         PUBLIC        P2
  D:00B0H         PUBLIC        P3
  D:00C0H         PUBLIC        P4
  D:00C8H         PUBLIC        P5
  D:00E8H         PUBLIC        P6
  D:00F8H         PUBLIC        P7
  C:1A36H         PUBLIC        _Seg7SetMode
  D:00A8H         PUBLIC        IE
  D:00B8H         PUBLIC        IP
  D:00D8H         PUBLIC        CCON
  C:236EH         PUBLIC        _LedPrint
  B:00A0H.0       PUBLIC        P20
  B:00A0H.1       PUBLIC        P21
  D:0098H         PUBLIC        SCON
  B:00A0H.2       PUBLIC        P22
  D:0088H         PUBLIC        TCON
  B:00A0H.3       PUBLIC        P23
  C:22A1H         PUBLIC        DisplayerInit
BL51 BANKED LINKER/LOCATER V6.22                                                      09/18/2025  12:55:47  PAGE 12


  C:1AC5H         PUBLIC        _LedSetMode
  X:0071H         PUBLIC        sys_Disp
  C:234CH         PUBLIC        _SetDisplayerArea
  C:21D7H         PUBLIC        _Seg7Print
  C:0F31H         PUBLIC        _?sys_display_drv
  D:00D0H         PUBLIC        PSW
  D:0094H         PUBLIC        P0M0
  -------         PROC          _?SYS_DISPLAY_DRV
  -------         DO            
  X:006FH         SYMBOL        T1mS
  X:0070H         SYMBOL        T100mS
  i:0000H         SYMBOL        d
  i:0001H         SYMBOL        i
  -------         ENDDO         
  C:0F31H         LINE#         18
  C:0F35H         LINE#         21
  C:0F42H         LINE#         22
  C:0F45H         LINE#         23
  C:0F52H         LINE#         24
  C:0F52H         LINE#         25
  C:0F55H         LINE#         26
  C:0F7EH         LINE#         27
  C:0F84H         LINE#         28
  C:0F8AH         LINE#         29
  C:0F90H         LINE#         30
  C:0F96H         LINE#         31
  C:0FA0H         LINE#         32
  C:0FAAH         LINE#         33
  C:0FB4H         LINE#         34
  C:0FBEH         LINE#         35
  C:0FC0H         LINE#         36
  C:0FC0H         LINE#         37
  C:0FC8H         LINE#         38
  C:0FEDH         LINE#         39
  C:100DH         LINE#         40
  C:100DH         LINE#         41
  C:100FH         LINE#         43
  C:1018H         LINE#         44
  C:102BH         LINE#         45
  C:103AH         LINE#         46
  C:103AH         LINE#         47
  C:1056H         LINE#         48
  C:106BH         LINE#         49
  C:1071H         LINE#         50
  C:1076H         LINE#         51
  C:1078H         LINE#         52
  C:107BH         LINE#         53
  C:107BH         LINE#         55
  C:1092H         LINE#         56
  C:109FH         LINE#         58
  C:10A7H         LINE#         59
  -------         ENDPROC       _?SYS_DISPLAY_DRV
  -------         PROC          DISPLAYERINIT
  C:22A1H         LINE#         61
  C:22A1H         LINE#         62
  C:22A1H         LINE#         63
  C:22A4H         LINE#         64
BL51 BANKED LINKER/LOCATER V6.22                                                      09/18/2025  12:55:47  PAGE 13


  C:22A7H         LINE#         65
  C:22AAH         LINE#         66
  C:22ADH         LINE#         67
  C:22BBH         LINE#         68
  -------         ENDPROC       DISPLAYERINIT
  -------         PROC          _SETDISPLAYERAREA
  D:0007H         SYMBOL        Begin_of_scan
  D:0005H         SYMBOL        Ending_of_Scan
  C:234CH         LINE#         70
  C:234CH         LINE#         71
  C:2351H         LINE#         72
  C:2354H         LINE#         73
  -------         ENDPROC       _SETDISPLAYERAREA
  -------         PROC          _SEG7PRINT
  D:0007H         SYMBOL        d0
  D:0005H         SYMBOL        d1
  D:0003H         SYMBOL        d2
  D:0038H         SYMBOL        d3
  D:0039H         SYMBOL        d4
  D:003AH         SYMBOL        d5
  D:003BH         SYMBOL        d6
  D:003CH         SYMBOL        d7
  C:21D7H         LINE#         75
  C:21D7H         LINE#         76
  C:21DCH         LINE#         77
  C:21DFH         LINE#         78
  C:21E2H         LINE#         79
  C:21E6H         LINE#         80
  C:21EAH         LINE#         81
  C:21EEH         LINE#         82
  C:21F2H         LINE#         83
  C:21F6H         LINE#         84
  -------         ENDPROC       _SEG7PRINT
  -------         PROC          _LEDPRINT
  D:0007H         SYMBOL        led_val
  C:236EH         LINE#         86
  C:236EH         LINE#         87
  C:2373H         LINE#         88
  -------         ENDPROC       _LEDPRINT
  -------         PROC          _SEG7SETMODE
  D:0007H         SYMBOL        m0
  D:0005H         SYMBOL        m1
  D:0003H         SYMBOL        m2
  D:0040H         SYMBOL        m3
  D:0041H         SYMBOL        m4
  D:0042H         SYMBOL        m5
  D:0043H         SYMBOL        m6
  D:0044H         SYMBOL        m7
  C:1A36H         LINE#         90
  C:1A36H         LINE#         91
  C:1A4AH         LINE#         92
  C:1A5AH         LINE#         93
  C:1A6AH         LINE#         94
  C:1A7CH         LINE#         95
  C:1A8EH         LINE#         96
  C:1AA0H         LINE#         97
  C:1AB2H         LINE#         98
BL51 BANKED LINKER/LOCATER V6.22                                                      09/18/2025  12:55:47  PAGE 14


  C:1AC4H         LINE#         99
  -------         ENDPROC       _SEG7SETMODE
  -------         PROC          _LEDSETMODE
  D:0007H         SYMBOL        m0
  D:0005H         SYMBOL        m1
  D:0003H         SYMBOL        m2
  D:0048H         SYMBOL        m3
  D:0049H         SYMBOL        m4
  D:004AH         SYMBOL        m5
  D:004BH         SYMBOL        m6
  D:004CH         SYMBOL        m7
  C:1AC5H         LINE#         101
  C:1AC5H         LINE#         102
  C:1AD9H         LINE#         103
  C:1AE9H         LINE#         104
  C:1AF9H         LINE#         105
  C:1B0BH         LINE#         106
  C:1B1DH         LINE#         107
  C:1B2FH         LINE#         108
  C:1B41H         LINE#         109
  C:1B53H         LINE#         110
  -------         ENDPROC       _LEDSETMODE
  -------         ENDMOD        DISPLAYER

  -------         MODULE        HALL
  C:0000H         SYMBOL        _ICE_DUMMY_
  D:0080H         PUBLIC        P0
  D:0090H         PUBLIC        P1
  D:00A0H         PUBLIC        P2
  D:00B0H         PUBLIC        P3
  D:00C0H         PUBLIC        P4
  D:00C8H         PUBLIC        P5
  D:00E8H         PUBLIC        P6
  D:00F8H         PUBLIC        P7
  D:001FH         PUBLIC        hall_Event
  C:22CDH         PUBLIC        _?sys_get_hallEvent
  D:00A8H         PUBLIC        IE
  C:1F98H         PUBLIC        _?sys_hall_drv
  D:00B8H         PUBLIC        IP
  C:2214H         PUBLIC        HallInit
  B:0090H.2       PUBLIC        IO_hall
  D:00D8H         PUBLIC        CCON
  D:0098H         PUBLIC        SCON
  D:0088H         PUBLIC        TCON
  C:2374H         PUBLIC        GetHallAct
  X:00C1H         PUBLIC        sys_hallEvent
  D:00D0H         PUBLIC        PSW
  -------         PROC          _?SYS_HALL_DRV
  -------         DO            
  X:00BEH         SYMBOL        counter
  X:00BFH         SYMBOL        hall_count
  X:00C0H         SYMBOL        hall_last_count
  -------         ENDDO         
  C:1F98H         LINE#         14
  C:1F98H         LINE#         19
  C:1FA1H         LINE#         20
  C:1FA9H         LINE#         21
BL51 BANKED LINKER/LOCATER V6.22                                                      09/18/2025  12:55:47  PAGE 15


  C:1FACH         LINE#         22
  C:1FB4H         LINE#         23
  C:1FBAH         LINE#         24
  C:1FBDH         LINE#         25
  C:1FBDH         LINE#         26
  C:1FBDH         LINE#         27
  C:1FBFH         LINE#         29
  C:1FC8H         LINE#         30
  C:1FCBH         LINE#         31
  C:1FCFH         LINE#         32
  C:1FCFH         LINE#         33
  C:1FCFH         LINE#         34
  C:1FD4H         LINE#         35
  C:1FDAH         LINE#         36
  C:1FDAH         LINE#         37
  -------         ENDPROC       _?SYS_HALL_DRV
  -------         PROC          _?SYS_GET_HALLEVENT
  -------         DO            
  i:0000H         SYMBOL        a
  -------         ENDDO         
  C:22CDH         LINE#         39
  C:22CFH         LINE#         41
  C:22D7H         LINE#         42
  C:22D9H         LINE#         43
  C:22D9H         LINE#         44
  -------         ENDPROC       _?SYS_GET_HALLEVENT
  -------         PROC          HALLINIT
  C:2214H         LINE#         46
  C:2214H         LINE#         47
  C:2214H         LINE#         48
  C:2222H         LINE#         49
  C:2230H         LINE#         50
  -------         ENDPROC       HALLINIT
  -------         PROC          GETHALLACT
  -------         DO            
  D:0007H         SYMBOL        a
  -------         ENDDO         
  C:2374H         LINE#         52
  C:2374H         LINE#         53
  C:2374H         LINE#         54
  C:2376H         LINE#         55
  C:2379H         LINE#         56
  C:2379H         LINE#         57
  -------         ENDPROC       GETHALLACT
  -------         ENDMOD        HALL

  -------         MODULE        KEY
  C:0000H         SYMBOL        _ICE_DUMMY_
  D:0080H         PUBLIC        P0
  D:0090H         PUBLIC        P1
  D:00A0H         PUBLIC        P2
  D:00B0H         PUBLIC        P3
  D:00C0H         PUBLIC        P4
  D:00C8H         PUBLIC        P5
  D:00E8H         PUBLIC        P6
  D:00F8H         PUBLIC        P7
  D:00A8H         PUBLIC        IE
BL51 BANKED LINKER/LOCATER V6.22                                                      09/18/2025  12:55:47  PAGE 16


  X:00B4H         PUBLIC        sys_keyEvent
  D:00B8H         PUBLIC        IP
  D:00D8H         PUBLIC        CCON
  C:22DCH         PUBLIC        _?sys_get_keyEvent
  D:0098H         PUBLIC        SCON
  D:0088H         PUBLIC        TCON
  C:11D4H         PUBLIC        _?sys_key_drv
  C:2231H         PUBLIC        KeyInit
  B:00B0H.2       PUBLIC        IO_Key1
  B:00B0H.3       PUBLIC        IO_Key2
  B:0090H.7       PUBLIC        IO_Key3
  C:201DH         PUBLIC        _GetKeyAct
  X:00B5H         PUBLIC        sys_Key
  D:00D0H         PUBLIC        PSW
  -------         PROC          _?SYS_KEY_DRV
  -------         DO            
  i:0000H         SYMBOL        i
  X:00B3H         SYMBOL        counter
  -------         ENDDO         
  C:11D4H         LINE#         28
  C:11D6H         LINE#         31
  C:11DFH         LINE#         32
  C:11E8H         LINE#         33
  C:11F1H         LINE#         34
  C:11FCH         LINE#         35
  C:11FFH         LINE#         36
  C:1211H         LINE#         37
  C:122FH         LINE#         38
  C:1248H         LINE#         39
  C:1264H         LINE#         40
  C:1268H         LINE#         41
  C:1268H         LINE#         42
  C:126AH         LINE#         44
  C:128BH         LINE#         45
  C:12A1H         LINE#         46
  C:12A6H         LINE#         47
  C:12A6H         LINE#         48
  C:12A6H         LINE#         49
  C:12D9H         LINE#         50
  C:12F4H         LINE#         51
  C:12F8H         LINE#         52
  C:12F8H         LINE#         53
  -------         ENDPROC       _?SYS_KEY_DRV
  -------         PROC          _?SYS_GET_KEYEVENT
  -------         DO            
  i:0000H         SYMBOL        a
  -------         ENDDO         
  C:22DCH         LINE#         55
  C:22DEH         LINE#         57
  C:22E6H         LINE#         58
  C:22E8H         LINE#         59
  C:22E8H         LINE#         60
  -------         ENDPROC       _?SYS_GET_KEYEVENT
  -------         PROC          KEYINIT
  C:2231H         LINE#         62
  C:2231H         LINE#         63
  C:2231H         LINE#         66
BL51 BANKED LINKER/LOCATER V6.22                                                      09/18/2025  12:55:47  PAGE 17


  C:223FH         LINE#         67
  C:224DH         LINE#         68
  -------         ENDPROC       KEYINIT
  -------         PROC          _GETKEYACT
  D:0007H         SYMBOL        Key
  -------         DO            
  D:0006H         SYMBOL        a
  -------         ENDDO         
  C:201DH         LINE#         70
  C:201DH         LINE#         71
  C:201DH         LINE#         72
  C:2027H         LINE#         73
  C:2042H         LINE#         74
  C:2057H         LINE#         75
  C:205AH         LINE#         76
  C:205AH         LINE#         77
  C:205CH         LINE#         78
  -------         ENDPROC       _GETKEYACT
  -------         ENDMOD        KEY

  -------         MODULE        SYS
  C:0000H         SYMBOL        _ICE_DUMMY_
  X:0000H         PUBLIC        count_1mS
  B:00D8H.2       PUBLIC        CCF2
  D:0080H         PUBLIC        P0
  B:0020H.1       PUBLIC        flag_1S
  D:0090H         PUBLIC        P1
  D:00A0H         PUBLIC        P2
  D:00B0H         PUBLIC        P3
  D:00C0H         PUBLIC        P4
  X:0001H         PUBLIC        T1
  D:00C8H         PUBLIC        P5
  X:0003H         PUBLIC        T2
  B:00A8H.7       PUBLIC        EA
  D:00E8H         PUBLIC        P6
  D:00F8H         PUBLIC        P7
  D:0023H         PUBLIC        IrDatNum
  B:00D8H.7       PUBLIC        CF
  B:0020H.2       PUBLIC        Ir_Coder
  B:0020H.3       PUBLIC        Ir_RxBusy
  D:00A8H         PUBLIC        IE
  B:0020H.4       PUBLIC        Ir_TxBusy
  X:0005H         PUBLIC        userfunccall
  D:00FAH         PUBLIC        CCAP0H
  D:00FBH         PUBLIC        CCAP1H
  C:1BE0H         PUBLIC        sys_task_Ir
  D:0024H         PUBLIC        IrCount_j
  D:0025H         PUBLIC        IrRx_count
  D:0026H         PUBLIC        IrProtocol
  D:00EAH         PUBLIC        CCAP0L
  D:0027H         PUBLIC        IrTx_count
  D:00EBH         PUBLIC        CCAP1L
  D:00DAH         PUBLIC        CCAPM0
  D:00DBH         PUBLIC        CCAPM1
  D:0028H         PUBLIC        MainLoops
  D:00B8H         PUBLIC        IP
  B:00D0H.7       PUBLIC        CY
BL51 BANKED LINKER/LOCATER V6.22                                                      09/18/2025  12:55:47  PAGE 18


  B:0020H.5       PUBLIC        flag_10mS
  D:00D8H         PUBLIC        CCON
  C:2355H         PUBLIC        GetBeepTimer
  C:1EBBH         PUBLIC        sys_Timer0_isr
  C:1D73H         PUBLIC        _SetEventCallBack
  C:237AH         PUBLIC        MySTC_Init
  C:205DH         PUBLIC        sys_task_100mS
  X:0029H         PUBLIC        ModBus_interval_time
  C:2389H         PUBLIC        _?ret0func
  C:1E68H         PUBLIC        GetUltraSonic
  X:002AH         PUBLIC        count_10mS
  X:002BH         PUBLIC        stcDrivers
  C:235EH         PUBLIC        _SetBeepTimer
  B:0020H.6       PUBLIC        flag_IrRxFinished
  D:0098H         PUBLIC        SCON
  C:22BCH         PUBLIC        _SetCCP0
  C:209CH         PUBLIC        MySTC_OS
  D:0089H         PUBLIC        TMOD
  D:0088H         PUBLIC        TCON
  B:0020H.7       PUBLIC        flag_Ir
  B:00B0H.5       PUBLIC        P35
  D:002CH         PUBLIC        IrRxNum
  X:0061H         PUBLIC        SysPerformance
  D:008EH         PUBLIC        AUXR
  C:17D1H         PUBLIC        sys_CCP_isr
  C:1421H         PUBLIC        sys_task_1mS
  B:00A8H.1       PUBLIC        ET0
  C:238CH         PUBLIC        ClrBeepPin
  D:008CH         PUBLIC        TH0
  B:0021H.0       PUBLIC        flag_100mS
  X:0066H         PUBLIC        distance
  D:008AH         PUBLIC        TL0
  D:002DH         PUBLIC        PollingMisses
  X:0068H         PUBLIC        sys_BP
  B:0088H.4       PUBLIC        TR0
  C:213CH         PUBLIC        sys_task_1S
  C:2367H         PUBLIC        GetSysPerformance
  B:0021H.1       PUBLIC        matchModBus
  X:006EH         PUBLIC        count_100mS
  B:0021H.2       PUBLIC        Ir_BitBusy
  D:002EH         PUBLIC        IrDat_count
  D:002FH         PUBLIC        IrMute_count
  B:0021H.3       PUBLIC        newFrame1
  C:1F0DH         PUBLIC        sys_Timer0_Init
  B:0021H.4       PUBLIC        newFrame2
  D:0030H         PUBLIC        IrDataPc
  C:238FH         PUBLIC        _?nullfunc
  B:0021H.5       PUBLIC        flag_1mS
  B:0021H.6       PUBLIC        newUS
  D:008FH         PUBLIC        INT_CLKO
  C:1914H         PUBLIC        sys_task_10mS
  D:00D0H         PUBLIC        PSW
  B:00D8H.0       PUBLIC        CCF0
  B:00B0H.4       PUBLIC        Beep
  B:00D8H.1       PUBLIC        CCF1
  -------         PROC          _?NULLFUNC
  C:238FH         LINE#         13
BL51 BANKED LINKER/LOCATER V6.22                                                      09/18/2025  12:55:47  PAGE 19


  -------         ENDPROC       _?NULLFUNC
  -------         PROC          _?RET0FUNC
  C:2389H         LINE#         14
  -------         ENDPROC       _?RET0FUNC
  -------         PROC          SYS_TIMER0_INIT
  C:1F0DH         LINE#         96
  C:1F0DH         LINE#         97
  C:1F10H         LINE#         98
  C:1F13H         LINE#         99
  C:1F29H         LINE#         100
  C:1F4FH         LINE#         101
  C:1F51H         LINE#         102
  C:1F53H         LINE#         103
  -------         ENDPROC       SYS_TIMER0_INIT
  -------         PROC          SYS_TIMER0_ISR
  -------         DO            
  D:0022H         SYMBOL        i
  -------         ENDDO         
  C:1EBBH         LINE#         105
  C:1EBFH         LINE#         107
  C:1EC2H         LINE#         108
  C:1EC5H         LINE#         109
  C:1ECAH         LINE#         110
  C:1ECCH         LINE#         111
  C:1ECCH         LINE#         112
  C:1ED2H         LINE#         113
  C:1ED8H         LINE#         114
  C:1EDBH         LINE#         115
  C:1EDDH         LINE#         116
  C:1EE0H         LINE#         117
  C:1EE4H         LINE#         118
  C:1EE6H         LINE#         119
  C:1EE9H         LINE#         120
  C:1EEBH         LINE#         122
  C:1EEEH         LINE#         123
  C:1EF0H         LINE#         124
  C:1EF5H         LINE#         125
  C:1EF5H         LINE#         126
  C:1EF7H         LINE#         128
  C:1F00H         LINE#         129
  C:1F02H         LINE#         130
  C:1F08H         LINE#         131
  C:1F08H         LINE#         132
  C:1F08H         LINE#         133
  C:1F08H         LINE#         134
  -------         ENDPROC       SYS_TIMER0_ISR
  -------         PROC          GETULTRASONIC
  -------         DO            
  D:004DH         SYMBOL        a
  -------         ENDDO         
  C:1E68H         LINE#         138
  C:1E68H         LINE#         139
  C:1E68H         LINE#         140
  C:1E6BH         LINE#         141
  C:1E6DH         LINE#         142
  C:1E7CH         LINE#         143
  C:1EB2H         LINE#         144
BL51 BANKED LINKER/LOCATER V6.22                                                      09/18/2025  12:55:47  PAGE 20


  C:1EB2H         LINE#         145
  C:1EBAH         LINE#         146
  -------         ENDPROC       GETULTRASONIC
  -------         PROC          GETBEEPTIMER
  C:2355H         LINE#         148
  C:2355H         LINE#         149
  C:235DH         LINE#         150
  -------         ENDPROC       GETBEEPTIMER
  -------         PROC          _SETBEEPTIMER
  D:0006H         SYMBOL        a
  C:235EH         LINE#         152
  C:235EH         LINE#         153
  C:2366H         LINE#         154
  -------         ENDPROC       _SETBEEPTIMER
  -------         PROC          _SETCCP0
  D:0006H         SYMBOL        step
  D:0004H         SYMBOL        next
  C:22BCH         LINE#         156
  C:22BCH         LINE#         157
  C:22C4H         LINE#         158
  C:22CCH         LINE#         159
  -------         ENDPROC       _SETCCP0
  -------         PROC          CLRBEEPPIN
  C:238CH         LINE#         161
  C:238CH         LINE#         162
  C:238EH         LINE#         163
  -------         ENDPROC       CLRBEEPPIN
  -------         PROC          SYS_CCP_ISR
  -------         DO            
  B:0020H.0       SYMBOL        a
  -------         ENDDO         
  C:17D1H         LINE#         165
  C:17E4H         LINE#         167
  C:17EBH         LINE#         168
  C:17F2H         LINE#         169
  C:17F5H         LINE#         170
  C:17F7H         LINE#         171
  C:1807H         LINE#         172
  C:180EH         LINE#         173
  C:1811H         LINE#         174
  C:1813H         LINE#         175
  C:1815H         LINE#         177
  C:1829H         LINE#         178
  C:182CH         LINE#         179
  C:182EH         LINE#         180
  C:1830H         LINE#         181
  C:1832H         LINE#         183
  C:1832H         LINE#         184
  C:1835H         LINE#         185
  C:1837H         LINE#         186
  C:1841H         LINE#         187
  C:1843H         LINE#         188
  C:184CH         LINE#         189
  C:184FH         LINE#         190
  C:1861H         LINE#         191
  C:1863H         LINE#         193
  C:1865H         LINE#         194
BL51 BANKED LINKER/LOCATER V6.22                                                      09/18/2025  12:55:47  PAGE 21


  C:1868H         LINE#         195
  C:1868H         LINE#         196
  C:1868H         LINE#         197
  -------         ENDPROC       SYS_CCP_ISR
  -------         PROC          MYSTC_INIT
  C:237AH         LINE#         199
  C:237AH         LINE#         200
  C:237DH         LINE#         201
  C:237FH         LINE#         202
  -------         ENDPROC       MYSTC_INIT
  -------         PROC          SYS_TASK_IR
  -------         DO            
  D:0007H         SYMBOL        a
  -------         ENDDO         
  C:1BE0H         LINE#         204
  C:1BE0H         LINE#         205
  C:1BE0H         LINE#         206
  C:1BF6H         LINE#         207
  C:1BFDH         LINE#         208
  C:1C00H         LINE#         209
  C:1C03H         LINE#         210
  C:1C19H         LINE#         211
  C:1C29H         LINE#         212
  C:1C31H         LINE#         213
  C:1C34H         LINE#         214
  C:1C36H         LINE#         216
  C:1C4CH         LINE#         217
  C:1C60H         LINE#         218
  C:1C60H         LINE#         219
  C:1C62H         LINE#         220
  C:1C65H         LINE#         222
  C:1C65H         LINE#         224
  C:1C67H         LINE#         225
  C:1C6AH         LINE#         226
  C:1C6AH         LINE#         227
  -------         ENDPROC       SYS_TASK_IR
  -------         PROC          SYS_TASK_1MS
  C:1421H         LINE#         229
  C:1421H         LINE#         230
  C:1429H         LINE#         231
  C:142CH         LINE#         232
  C:142EH         LINE#         233
  C:1436H         LINE#         234
  C:1439H         LINE#         235
  C:143BH         LINE#         236
  C:1443H         LINE#         237
  C:1446H         LINE#         238
  C:1448H         LINE#         239
  C:1448H         LINE#         240
  C:1448H         LINE#         241
  C:1448H         LINE#         242
  C:1454H         LINE#         243
  C:1460H         LINE#         244
  C:146CH         LINE#         245
  C:1478H         LINE#         246
  C:1484H         LINE#         247
  C:1490H         LINE#         248
BL51 BANKED LINKER/LOCATER V6.22                                                      09/18/2025  12:55:47  PAGE 22


  C:14ABH         LINE#         249
  C:14BAH         LINE#         250
  C:14C6H         LINE#         251
  C:14C8H         LINE#         252
  C:14C8H         LINE#         253
  C:14D1H         LINE#         254
  C:14D6H         LINE#         255
  C:14E5H         LINE#         256
  C:14E7H         LINE#         257
  C:14E7H         LINE#         258
  C:14E9H         LINE#         260
  C:14F8H         LINE#         261
  C:1504H         LINE#         262
  C:1506H         LINE#         263
  C:1506H         LINE#         264
  C:1506H         LINE#         265
  -------         ENDPROC       SYS_TASK_1MS
  -------         PROC          SYS_TASK_10MS
  C:1914H         LINE#         268
  C:1914H         LINE#         269
  C:1920H         LINE#         270
  C:192CH         LINE#         271
  C:1938H         LINE#         272
  C:1944H         LINE#         273
  C:195FH         LINE#         274
  C:197AH         LINE#         275
  C:1995H         LINE#         276
  C:1998H         LINE#         277
  C:199AH         LINE#         278
  C:19A6H         LINE#         279
  C:19A6H         LINE#         280
  -------         ENDPROC       SYS_TASK_10MS
  -------         PROC          SYS_TASK_100MS
  C:205DH         LINE#         282
  C:205DH         LINE#         283
  C:2069H         LINE#         284
  C:2084H         LINE#         285
  C:2090H         LINE#         286
  -------         ENDPROC       SYS_TASK_100MS
  -------         PROC          SYS_TASK_1S
  C:213CH         LINE#         289
  C:213CH         LINE#         290
  C:214AH         LINE#         291
  C:2150H         LINE#         292
  C:2159H         LINE#         293
  C:215BH         LINE#         294
  -------         ENDPROC       SYS_TASK_1S
  -------         PROC          MYSTC_OS
  C:209CH         LINE#         297
  C:209CH         LINE#         298
  C:20A4H         LINE#         299
  C:20ACH         LINE#         300
  C:20B4H         LINE#         301
  C:20BCH         LINE#         302
  C:20C4H         LINE#         303
  C:20D9H         LINE#         306
  -------         ENDPROC       MYSTC_OS
BL51 BANKED LINKER/LOCATER V6.22                                                      09/18/2025  12:55:47  PAGE 23


  -------         PROC          _SETEVENTCALLBACK
  D:0007H         SYMBOL        event
  D:0033H         SYMBOL        user_callback
  C:1D73H         LINE#         308
  C:1D79H         LINE#         309
  C:1DAAH         LINE#         310
  C:1DADH         LINE#         311
  C:1DAFH         LINE#         312
  C:1DB2H         LINE#         313
  C:1DB4H         LINE#         314
  C:1DB7H         LINE#         315
  C:1DB9H         LINE#         316
  C:1DBCH         LINE#         317
  C:1DBEH         LINE#         318
  C:1DC1H         LINE#         319
  C:1DC3H         LINE#         320
  C:1DC6H         LINE#         321
  C:1DC8H         LINE#         322
  C:1DCBH         LINE#         323
  C:1DCDH         LINE#         324
  C:1DD0H         LINE#         325
  C:1DD2H         LINE#         326
  C:1DD5H         LINE#         327
  C:1DD7H         LINE#         328
  C:1DDAH         LINE#         329
  C:1DDCH         LINE#         330
  C:1DDFH         LINE#         331
  C:1DE1H         LINE#         332
  C:1DEFH         LINE#         333
  C:1DEFH         LINE#         334
  C:1DEFH         LINE#         335
  C:1DEFH         LINE#         336
  -------         ENDPROC       _SETEVENTCALLBACK
  -------         PROC          GETSYSPERFORMANCE
  C:2367H         LINE#         338
  C:2367H         LINE#         339
  C:236DH         LINE#         340
  -------         ENDPROC       GETSYSPERFORMANCE
  -------         ENDMOD        SYS

  -------         MODULE        VIB
  C:0000H         SYMBOL        _ICE_DUMMY_
  D:0080H         PUBLIC        P0
  D:0090H         PUBLIC        P1
  D:00A0H         PUBLIC        P2
  D:00B0H         PUBLIC        P3
  D:00C0H         PUBLIC        P4
  D:00C8H         PUBLIC        P5
  D:00E8H         PUBLIC        P6
  D:00F8H         PUBLIC        P7
  D:00A8H         PUBLIC        IE
  X:00C2H         PUBLIC        SV_Event
  C:22EBH         PUBLIC        _?sys_get_SVEvent
  C:2327H         PUBLIC        _?sys_SV_drv
  D:00B8H         PUBLIC        IP
  B:00A0H.4       PUBLIC        IO_SV
  D:00D8H         PUBLIC        CCON
BL51 BANKED LINKER/LOCATER V6.22                                                      09/18/2025  12:55:47  PAGE 24


  D:0098H         PUBLIC        SCON
  D:0088H         PUBLIC        TCON
  C:224EH         PUBLIC        VibInit
  C:22FAH         PUBLIC        _?GetVibAct
  X:00C3H         PUBLIC        sys_SVEvent
  D:00D0H         PUBLIC        PSW
  -------         PROC          _?SYS_SV_DRV
  C:2327H         LINE#         14
  C:2327H         LINE#         15
  C:232AH         LINE#         16
  C:2330H         LINE#         17
  C:2334H         LINE#         18
  C:2334H         LINE#         19
  -------         ENDPROC       _?SYS_SV_DRV
  -------         PROC          _?SYS_GET_SVEVENT
  -------         DO            
  i:0000H         SYMBOL        a
  -------         ENDDO         
  C:22EBH         LINE#         21
  C:22EDH         LINE#         23
  C:22F5H         LINE#         24
  C:22F7H         LINE#         25
  C:22F7H         LINE#         26
  -------         ENDPROC       _?SYS_GET_SVEVENT
  -------         PROC          VIBINIT
  C:224EH         LINE#         28
  C:224EH         LINE#         29
  C:224EH         LINE#         30
  C:225CH         LINE#         31
  C:226AH         LINE#         32
  -------         ENDPROC       VIBINIT
  -------         PROC          _?GETVIBACT
  -------         DO            
  i:0000H         SYMBOL        a
  -------         ENDDO         
  C:22FAH         LINE#         34
  C:22FCH         LINE#         36
  C:2304H         LINE#         37
  C:2306H         LINE#         38
  C:2306H         LINE#         39
  -------         ENDPROC       _?GETVIBACT
  -------         ENDMOD        VIB

  -------         MODULE        MUSIC
  C:0000H         SYMBOL        _ICE_DUMMY_
  D:0080H         PUBLIC        P0
  D:0090H         PUBLIC        P1
  D:00A0H         PUBLIC        P2
  D:00B0H         PUBLIC        P3
  D:00C0H         PUBLIC        P4
  D:00C8H         PUBLIC        P5
  D:00E8H         PUBLIC        P6
  D:00F8H         PUBLIC        P7
  C:2309H         PUBLIC        MusicPlayerInit
  D:00A8H         PUBLIC        IE
  C:0800H         PUBLIC        _?sys_music_drv
  D:00B8H         PUBLIC        IP
BL51 BANKED LINKER/LOCATER V6.22                                                      09/18/2025  12:55:47  PAGE 25


  C:2380H         PUBLIC        GetPlayerMode
  X:00A6H         PUBLIC        music
  D:00D8H         PUBLIC        CCON
  C:218FH         PUBLIC        _SetPlayerMode
  C:1727H         PUBLIC        _PlayTone
  C:1CF2H         PUBLIC        _SetMusic
  D:0098H         PUBLIC        SCON
  D:0088H         PUBLIC        TCON
  B:0021H.7       PUBLIC        beat_dir
  D:00D0H         PUBLIC        PSW
  -------         PROC          _PLAYTONE
  D:0033H         SYMBOL        tone
  D:0034H         SYMBOL        beatsPM
  D:0035H         SYMBOL        scale
  D:0036H         SYMBOL        beats
  -------         DO            
  D:0037H         SYMBOL        freq
  D:0004H         SYMBOL        playtime
  C:12FBH         SYMBOL        sound_freq
  -------         ENDDO         
  C:1727H         LINE#         22
  C:172DH         LINE#         23
  C:172DH         LINE#         34
  C:1736H         LINE#         35
  C:176BH         LINE#         36
  C:176EH         LINE#         37
  C:17AFH         LINE#         38
  C:17B4H         LINE#         39
  C:17C9H         LINE#         40
  C:17D0H         LINE#         41
  C:17D0H         LINE#         42
  -------         ENDPROC       _PLAYTONE
  -------         PROC          _?SYS_MUSIC_DRV
  -------         DO            
  i:0000H         SYMBOL        a
  i:0001H         SYMBOL        b
  X:00A3H         SYMBOL        scale
  X:00A4H         SYMBOL        repeat_pt
  -------         ENDDO         
  C:0800H         LINE#         44
  C:0804H         LINE#         48
  C:0825H         LINE#         49
  C:0829H         LINE#         50
  C:0830H         LINE#         51
  C:0836H         LINE#         52
  C:083AH         LINE#         53
  C:083FH         LINE#         55
  C:083FH         LINE#         57
  C:085BH         LINE#         58
  C:0899H         LINE#         59
  C:08B8H         LINE#         60
  C:08CAH         LINE#         61
  C:08DFH         LINE#         62
  C:08F6H         LINE#         63
  C:0922H         LINE#         64
  C:0945H         LINE#         65
  C:094DH         LINE#         66
BL51 BANKED LINKER/LOCATER V6.22                                                      09/18/2025  12:55:47  PAGE 26


  C:094FH         LINE#         67
  C:0956H         LINE#         68
  C:0956H         LINE#         70
  C:096EH         LINE#         71
  C:0977H         LINE#         72
  C:0999H         LINE#         73
  C:09B6H         LINE#         74
  C:09D7H         LINE#         75
  C:09E5H         LINE#         76
  C:09E7H         LINE#         77
  C:0A08H         LINE#         78
  C:0A16H         LINE#         79
  C:0A19H         LINE#         80
  C:0A19H         LINE#         81
  C:0A19H         LINE#         82
  C:0A19H         LINE#         83
  C:0A3AH         LINE#         84
  C:0A3DH         LINE#         85
  C:0A50H         LINE#         86
  C:0A53H         LINE#         87
  C:0A70H         LINE#         88
  C:0A7EH         LINE#         89
  C:0A81H         LINE#         90
  C:0A8FH         LINE#         91
  C:0A92H         LINE#         92
  C:0A92H         LINE#         93
  C:0A92H         LINE#         94
  C:0AA7H         LINE#         95
  C:0AC8H         LINE#         96
  C:0AF5H         LINE#         97
  C:0AF5H         LINE#         98
  C:0AF5H         LINE#         99
  C:0AF7H         LINE#         101
  C:0AFDH         LINE#         103
  C:0AFDH         LINE#         104
  -------         ENDPROC       _?SYS_MUSIC_DRV
  -------         PROC          MUSICPLAYERINIT
  C:2309H         LINE#         106
  C:2309H         LINE#         107
  C:2309H         LINE#         108
  C:2317H         LINE#         109
  -------         ENDPROC       MUSICPLAYERINIT
  -------         PROC          _SETMUSIC
  D:0007H         SYMBOL        beatsPM
  D:0005H         SYMBOL        tone
  D:0035H         SYMBOL        pt
  D:0038H         SYMBOL        datasize
  D:003AH         SYMBOL        display
  C:1CF2H         LINE#         111
  C:1CF8H         LINE#         112
  C:1CF8H         LINE#         113
  C:1D18H         LINE#         114
  C:1D1FH         LINE#         115
  C:1D23H         LINE#         116
  C:1D25H         LINE#         117
  C:1D25H         LINE#         118
  C:1D2CH         LINE#         119
BL51 BANKED LINKER/LOCATER V6.22                                                      09/18/2025  12:55:47  PAGE 27


  C:1D33H         LINE#         120
  C:1D57H         LINE#         121
  C:1D62H         LINE#         122
  C:1D6AH         LINE#         123
  C:1D6AH         LINE#         124
  C:1D72H         LINE#         126
  -------         ENDPROC       _SETMUSIC
  -------         PROC          _SETPLAYERMODE
  D:0007H         SYMBOL        play_ctrl
  C:218FH         LINE#         128
  C:218FH         LINE#         129
  C:21B1H         LINE#         130
  C:21B6H         LINE#         131
  -------         ENDPROC       _SETPLAYERMODE
  -------         PROC          GETPLAYERMODE
  C:2380H         LINE#         133
  C:2380H         LINE#         134
  C:2385H         LINE#         135
  -------         ENDPROC       GETPLAYERMODE
  -------         ENDMOD        MUSIC

  -------         MODULE        UART2
  C:0000H         SYMBOL        _ICE_DUMMY_
  D:004FH         PUBLIC        ModBus_Interval_Min
  D:0080H         PUBLIC        P0
  C:0D56H         PUBLIC        Uart2_isr
  D:0090H         PUBLIC        P1
  D:00A0H         PUBLIC        P2
  D:00B0H         PUBLIC        P3
  D:00C0H         PUBLIC        P4
  D:00C8H         PUBLIC        P5
  D:00E8H         PUBLIC        P6
  D:00F8H         PUBLIC        P7
  D:00BAH         PUBLIC        P_SW2
  D:00A8H         PUBLIC        IE
  D:00DBH         PUBLIC        CCAPM1
  D:00B8H         PUBLIC        IP
  C:2390H         PUBLIC        _?nullfunc0
  D:00D8H         PUBLIC        CCON
  C:20DAH         PUBLIC        _SetUart2Rxd
  B:0090H.0       PUBLIC        P10
  B:0090H.1       PUBLIC        P11
  D:0098H         PUBLIC        SCON
  D:0088H         PUBLIC        TCON
  D:00AFH         PUBLIC        IE2
  D:008EH         PUBLIC        AUXR
  C:2341H         PUBLIC        GetUart2TxStatus
  D:00D6H         PUBLIC        T2H
  B:00B0H.7       PUBLIC        M485_TxEn
  D:00D7H         PUBLIC        T2L
  C:210BH         PUBLIC        _Uart2Print
  D:009BH         PUBLIC        S2BUF
  D:009AH         PUBLIC        S2CON
  C:1512H         PUBLIC        _Uart2Init
  X:008DH         PUBLIC        Uart2usage
  C:2318H         PUBLIC        _?sys_get_Uart2RxdEvent
  X:008EH         PUBLIC        com2
BL51 BANKED LINKER/LOCATER V6.22                                                      09/18/2025  12:55:47  PAGE 28


  D:00D0H         PUBLIC        PSW
  -------         PROC          UART2_ISR
  C:0D56H         LINE#         19
  C:0D73H         LINE#         20
  C:0D78H         LINE#         21
  C:0D7BH         LINE#         22
  C:0DAFH         LINE#         24
  C:0DB4H         LINE#         25
  C:0DBCH         LINE#         26
  C:0DBCH         LINE#         27
  C:0DBCH         LINE#         29
  C:0DC4H         LINE#         30
  C:0DC7H         LINE#         31
  C:0DCAH         LINE#         32
  C:0DCCH         LINE#         33
  C:0DD3H         LINE#         34
  C:0DD5H         LINE#         35
  C:0DD5H         LINE#         36
  C:0DE0H         LINE#         37
  C:0DF4H         LINE#         38
  C:0E08H         LINE#         39
  C:0E17H         LINE#         40
  C:0E25H         LINE#         41
  C:0E57H         LINE#         42
  C:0E65H         LINE#         43
  C:0E65H         LINE#         44
  C:0E6BH         LINE#         45
  C:0E6EH         LINE#         47
  C:0E82H         LINE#         48
  C:0E96H         LINE#         49
  C:0EA5H         LINE#         50
  C:0EB3H         LINE#         51
  C:0EEBH         LINE#         52
  C:0EF9H         LINE#         53
  C:0EF9H         LINE#         55
  C:0F0EH         LINE#         56
  C:0F14H         LINE#         57
  C:0F16H         LINE#         58
  C:0F16H         LINE#         59
  C:0F16H         LINE#         60
  C:0F16H         LINE#         61
  -------         ENDPROC       UART2_ISR
  -------         PROC          _?SYS_GET_UART2RXDEVENT
  -------         DO            
  i:0000H         SYMBOL        a
  -------         ENDDO         
  C:2318H         LINE#         63
  C:231AH         LINE#         65
  C:2322H         LINE#         66
  C:2324H         LINE#         67
  C:2324H         LINE#         68
  -------         ENDPROC       _?SYS_GET_UART2RXDEVENT
  -------         PROC          _?NULLFUNC0
  C:2390H         LINE#         70
  -------         ENDPROC       _?NULLFUNC0
  -------         PROC          _UART2INIT
  D:0033H         SYMBOL        band
BL51 BANKED LINKER/LOCATER V6.22                                                      09/18/2025  12:55:47  PAGE 29


  D:0037H         SYMBOL        Uart2mode
  C:1512H         LINE#         72
  C:151AH         LINE#         73
  C:151AH         LINE#         76
  C:1520H         LINE#         77
  C:1524H         LINE#         78
  C:1527H         LINE#         79
  C:152DH         LINE#         80
  C:153BH         LINE#         81
  C:153EH         LINE#         82
  C:1540H         LINE#         83
  C:1542H         LINE#         84
  C:1544H         LINE#         86
  C:1546H         LINE#         87
  C:155AH         LINE#         88
  C:1561H         LINE#         89
  C:1567H         LINE#         90
  C:1567H         LINE#         92
  C:156AH         LINE#         93
  C:1589H         LINE#         94
  C:15B8H         LINE#         95
  C:15BBH         LINE#         96
  C:15BEH         LINE#         97
  C:15CCH         LINE#         98
  -------         ENDPROC       _UART2INIT
  -------         PROC          _SETUART2RXD
  D:0001H         SYMBOL        RxdPt
  D:0004H         SYMBOL        Nmax
  D:0038H         SYMBOL        matchhead
  D:003BH         SYMBOL        matchheadsize
  C:20DAH         LINE#         100
  C:20DAH         LINE#         101
  C:20E5H         LINE#         102
  C:20EBH         LINE#         103
  C:20F5H         LINE#         104
  C:2103H         LINE#         105
  C:2105H         LINE#         106
  C:210AH         LINE#         107
  -------         ENDPROC       _SETUART2RXD
  -------         PROC          _UART2PRINT
  D:0001H         SYMBOL        pt
  D:0004H         SYMBOL        num
  C:210BH         LINE#         109
  C:210BH         LINE#         110
  C:2111H         LINE#         111
  C:2111H         LINE#         112
  C:2119H         LINE#         114
  C:2124H         LINE#         115
  C:2129H         LINE#         116
  C:212FH         LINE#         117
  C:2133H         LINE#         119
  C:2136H         LINE#         120
  C:2139H         LINE#         121
  C:2139H         LINE#         122
  C:213BH         LINE#         123
  -------         ENDPROC       _UART2PRINT
  -------         PROC          GETUART2TXSTATUS
BL51 BANKED LINKER/LOCATER V6.22                                                      09/18/2025  12:55:47  PAGE 30


  C:2341H         LINE#         125
  C:2341H         LINE#         126
  C:2349H         LINE#         127
  C:234BH         LINE#         128
  -------         ENDPROC       GETUART2TXSTATUS
  -------         ENDMOD        UART2

  -------         MODULE        ?C?CLDOPTR
  C:0B02H         PUBLIC        ?C?CLDOPTR
  -------         ENDMOD        ?C?CLDOPTR

  -------         MODULE        ?C?CSTOPTR
  C:0B2FH         PUBLIC        ?C?CSTOPTR
  -------         ENDMOD        ?C?CSTOPTR

  -------         MODULE        ?C?IMUL
  C:0B51H         PUBLIC        ?C?IMUL
  -------         ENDMOD        ?C?IMUL

  -------         MODULE        ?C?UIDIV
  C:0B63H         PUBLIC        ?C?UIDIV
  -------         ENDMOD        ?C?UIDIV

  -------         MODULE        ?C?IILDX
  C:0BB8H         PUBLIC        ?C?IILDX
  -------         ENDMOD        ?C?IILDX

  -------         MODULE        ?C?ILDIX
  C:0BCEH         PUBLIC        ?C?ILDIX
  -------         ENDMOD        ?C?ILDIX

  -------         MODULE        ?C?LMUL
  C:0BE4H         PUBLIC        ?C?LMUL
  -------         ENDMOD        ?C?LMUL

  -------         MODULE        ?C?ULDIV
  C:0C6FH         PUBLIC        ?C?ULDIV
  -------         ENDMOD        ?C?ULDIV

  -------         MODULE        ?C?SLDIV
  C:1F54H         PUBLIC        ?C?SLDIV
  -------         ENDMOD        ?C?SLDIV

  -------         MODULE        ?C?ULSHR
  C:0D01H         PUBLIC        ?C?ULSHR
  -------         ENDMOD        ?C?ULSHR

  -------         MODULE        ?C?SLSHR
  C:0D14H         PUBLIC        ?C?SLSHR
  -------         ENDMOD        ?C?SLSHR

  -------         MODULE        ?C?LLDCODE
  C:0D28H         PUBLIC        ?C?LLDCODE
  -------         ENDMOD        ?C?LLDCODE

  -------         MODULE        ?C?LSTXDATA
  C:0D38H         PUBLIC        ?C?LSTXDATA
BL51 BANKED LINKER/LOCATER V6.22                                                      09/18/2025  12:55:47  PAGE 31


  -------         ENDMOD        ?C?LSTXDATA

  -------         MODULE        ?C?OFFXADD
  C:0D44H         PUBLIC        ?C?OFFXADD
  -------         ENDMOD        ?C?OFFXADD

  -------         MODULE        ?C?ICALL
  C:0D50H         PUBLIC        ?C?ICALL
  C:0D54H         PUBLIC        ?C?ICALL2
  -------         ENDMOD        ?C?ICALL

  -------         MODULE        ?C_IBP
  D:0050H         PUBLIC        ?C_IBP
  -------         ENDMOD        ?C_IBP

*** WARNING L16: UNCALLED SEGMENT, IGNORED FOR OVERLAY PROCESS
    SEGMENT: ?PR?_SEG7SETMODE?DISPLAYER

*** WARNING L16: UNCALLED SEGMENT, IGNORED FOR OVERLAY PROCESS
    SEGMENT: ?PR?_LEDSETMODE?DISPLAYER

*** WARNING L16: UNCALLED SEGMENT, IGNORED FOR OVERLAY PROCESS
    SEGMENT: ?PR?GETULTRASONIC?SYS

*** WARNING L16: UNCALLED SEGMENT, IGNORED FOR OVERLAY PROCESS
    SEGMENT: ?PR?GETSYSPERFORMANCE?SYS

*** WARNING L16: UNCALLED SEGMENT, IGNORED FOR OVERLAY PROCESS
    SEGMENT: ?PR?GETPLAYERMODE?MUSIC

*** WARNING L16: UNCALLED SEGMENT, IGNORED FOR OVERLAY PROCESS
    SEGMENT: ?PR?GETUART2TXSTATUS?UART2

******************************************************************************
* RESTRICTED VERSION WITH 0800H BYTE CODE SIZE LIMIT; USED: 03C2H BYTE (46%) *
******************************************************************************

Program Size: data=82.0 xdata=196 code=7069
LINK/LOCATE RUN COMPLETE.  6 WARNING(S),  0 ERROR(S)
