BL51 BANKED LINKER/LOCATER V6.22                                                        09/18/2025  15:56:16  PAGE 1


BL51 BANKED LINKER/LOCATER V6.22, INVOKED BY:
D:\KEIL\C51\BIN\BL51.EXE main.obj, .\STCBSP_V3.6b.LIB TO test RAMSIZE (256)


MEMORY MODEL: SMALL


INPUT MODULES INCLUDED:
  main.obj (MAIN)
  .\STCBSP_V3.6b.LIB (BEEP)
  .\STCBSP_V3.6b.LIB (DISPLAYER)
  .\STCBSP_V3.6b.LIB (HALL)
  .\STCBSP_V3.6b.LIB (KEY)
  .\STCBSP_V3.6b.LIB (SYS)
  .\STCBSP_V3.6b.LIB (VIB)
  .\STCBSP_V3.6b.LIB (MUSIC)
  .\STCBSP_V3.6b.LIB (DS1302)
  .\STCBSP_V3.6b.LIB (UART2)
  D:\KEIL\C51\LIB\C51S.LIB (?C_STARTUP)
  D:\KEIL\C51\LIB\C51S.LIB (?C?COPY)
  D:\KEIL\C51\LIB\C51S.LIB (?C?CLDOPTR)
  D:\KEIL\C51\LIB\C51S.LIB (?C?CSTOPTR)
  D:\KEIL\C51\LIB\C51S.LIB (?C?IMUL)
  D:\KEIL\C51\LIB\C51S.LIB (?C?UIDIV)
  D:\KEIL\C51\LIB\C51S.LIB (?C?IILDX)
  D:\KEIL\C51\LIB\C51S.LIB (?C?ILDIX)
  D:\KEIL\C51\LIB\C51S.LIB (?C?LMUL)
  D:\KEIL\C51\LIB\C51S.LIB (?C?ULDIV)
  D:\KEIL\C51\LIB\C51S.LIB (?C?SLDIV)
  D:\KEIL\C51\LIB\C51S.LIB (?C?ULSHR)
  D:\KEIL\C51\LIB\C51S.LIB (?C?SLSHR)
  D:\KEIL\C51\LIB\C51S.LIB (?C?LLDCODE)
  D:\KEIL\C51\LIB\C51S.LIB (?C?LSTXDATA)
  D:\KEIL\C51\LIB\C51S.LIB (?C?OFFXADD)
  D:\KEIL\C51\LIB\C51S.LIB (?C?ICALL)
  D:\KEIL\C51\LIB\C51S.LIB (?C_IBP)
  D:\KEIL\C51\LIB\C51S.LIB (?C_INIT)


LINK MAP OF MODULE:  test (MAIN)


            TYPE    BASE      LENGTH    RELOCATION   SEGMENT NAME
            -----------------------------------------------------

            * * * * * * *   D A T A   M E M O R Y   * * * * * * *
            REG     0000H     0008H     ABSOLUTE     "REG BANK 0"
            DATA    0008H     0012H     UNIT         _DATA_GROUP_
            DATA    001AH     0002H     UNIT         ?DT?GETULTRASONIC?SYS
            DATA    001CH     0001H     UNIT         ?DT?HALL
            DATA    001DH     0001H     UNIT         ?DT?UART2
            DATA    001EH     0001H     UNIT         ?C?LIB_DATA
                    001FH     0001H                  *** GAP ***
            BIT     0020H.0   0001H.7   UNIT         ?BI?SYS
            BIT     0021H.7   0000H.1   UNIT         ?BI?MUSIC
            DATA    0022H     002CH     UNIT         ?DT?MAIN
            DATA    004EH     0011H     UNIT         ?DT?SYS
            DATA    005FH     0008H     UNIT         ?DT?_SEG7SETMODE?DISPLAYER
BL51 BANKED LINKER/LOCATER V6.22                                                      09/18/2025  15:56:16  PAGE 2


            DATA    0067H     0008H     UNIT         ?DT?_LEDSETMODE?DISPLAYER
            IDATA   006FH     0001H     UNIT         ?STACK

            * * * * * * *  X D A T A   M E M O R Y  * * * * * * *
            XDATA   0000H     006FH     UNIT         ?XD?SYS
            XDATA   006FH     001EH     UNIT         ?XD?DISPLAYER
            XDATA   008DH     0016H     UNIT         ?XD?UART2
            XDATA   00A3H     0010H     UNIT         ?XD?MUSIC
            XDATA   00B3H     000BH     UNIT         ?XD?KEY
            XDATA   00BEH     0009H     UNIT         ?XD?DS1302
            XDATA   00C7H     0004H     UNIT         ?XD?HALL
            XDATA   00CBH     0002H     UNIT         ?XD?VIB

            * * * * * * *   C O D E   M E M O R Y   * * * * * * *
            CODE    0000H     0003H     ABSOLUTE     
                    0003H     0008H                  *** GAP ***
            CODE    000BH     0003H     ABSOLUTE     
                    000EH     002DH                  *** GAP ***
            CODE    003BH     0003H     ABSOLUTE     
                    003EH     0005H                  *** GAP ***
            CODE    0043H     0003H     ABSOLUTE     
                    0046H     07BAH                  *** GAP ***
            CODE    0800H     034AH     UNIT         ?C?LIB_CODE
            CODE    0B4AH     0302H     UNIT         ?PR?_?SYS_MUSIC_DRV?MUSIC
            CODE    0E4CH     01F5H     UNIT         ?PR?MYDISPLAY_CALLBACK?MAIN
            CODE    1041H     01DBH     UNIT         ?PR?UART2_ISR?UART2
            CODE    121CH     017BH     UNIT         ?PR?_?SYS_DISPLAY_DRV?DISPLAYER
            CODE    1397H     0152H     UNIT         ?CO?MAIN
            CODE    14E9H     0135H     UNIT         ?C_INITSEG
            CODE    161EH     0127H     UNIT         ?PR?_?SYS_KEY_DRV?KEY
            CODE    1745H     0126H     UNIT         ?CO?MUSIC
            CODE    186BH     00FEH     UNIT         ?PR?DS1302INIT?DS1302
            CODE    1969H     00F1H     UNIT         ?PR?SYS_TASK_1MS?SYS
            CODE    1A5AH     00D8H     UNIT         ?PR?MAIN?MAIN
            CODE    1B32H     00BBH     UNIT         ?PR?_UART2INIT?UART2
            CODE    1BEDH     00B9H     UNIT         ?PR?MYLED_CALLBACK?MAIN
            CODE    1CA6H     00AAH     UNIT         ?PR?_PLAYTONE?MUSIC
            CODE    1D50H     00A8H     UNIT         ?PR?SYS_CCP_ISR?SYS
            CODE    1DF8H     00A5H     UNIT         ?PR?_?SYS_DS1302_DRV?DS1302
            CODE    1E9DH     0093H     UNIT         ?PR?SYS_TASK_10MS?SYS
            CODE    1F30H     008FH     UNIT         ?PR?_SEG7SETMODE?DISPLAYER
            CODE    1FBFH     008FH     UNIT         ?PR?_LEDSETMODE?DISPLAYER
            CODE    204EH     008CH     UNIT         ?C_C51STARTUP
            CODE    20DAH     008BH     UNIT         ?PR?SYS_TASK_IR?SYS
            CODE    2165H     0087H     UNIT         ?PR?BEEP_CHECK?MAIN
            CODE    21ECH     0081H     UNIT         ?PR?_SETMUSIC?MUSIC
            CODE    226DH     007DH     UNIT         ?PR?_SETEVENTCALLBACK?SYS
            CODE    22EAH     0078H     UNIT         ?PR?_SETBEEP?BEEP
            CODE    2362H     0053H     UNIT         ?PR?GETULTRASONIC?SYS
            CODE    23B5H     0052H     UNIT         ?PR?SYS_TIMER0_ISR?SYS
            CODE    2407H     0047H     UNIT         ?PR?SYS_TIMER0_INIT?SYS
            CODE    244EH     0044H     UNIT         ?C?LDIV
            CODE    2492H     0043H     UNIT         ?PR?_?SYS_HALL_DRV?HALL
            CODE    24D5H     0042H     UNIT         ?PR?MYHALL_CALLBACK?MAIN
            CODE    2517H     0040H     UNIT         ?PR?_GETKEYACT?KEY
            CODE    2557H     003FH     UNIT         ?PR?SYS_TASK_100MS?SYS
            CODE    2596H     003EH     UNIT         ?PR?MYSTC_OS?SYS
BL51 BANKED LINKER/LOCATER V6.22                                                      09/18/2025  15:56:16  PAGE 3


            CODE    25D4H     0034H     UNIT         ?PR?MYUART2_CALLBACK?MAIN
            CODE    2608H     0031H     UNIT         ?PR?_SETUART2RXD?UART2
            CODE    2639H     0031H     UNIT         ?PR?_UART2PRINT?UART2
            CODE    266AH     002EH     UNIT         ?PR?_DS1302READ?DS1302
            CODE    2698H     002BH     UNIT         ?PR?SYS_TASK_1S?SYS
            CODE    26C3H     0029H     UNIT         ?PR?_NVM_WRITE?DS1302
            CODE    26ECH     0028H     UNIT         ?PR?_?SYS_BEEP_DRV?BEEP
            CODE    2714H     0028H     UNIT         ?PR?_SETPLAYERMODE?MUSIC
            CODE    273CH     0020H     UNIT         ?PR?BEEPINIT?BEEP
            CODE    275CH     0020H     UNIT         ?PR?_SEG7PRINT?DISPLAYER
            CODE    277CH     0020H     UNIT         ?PR?_DS1302WRITE?DS1302
            CODE    279CH     001DH     UNIT         ?PR?MYVIB_CALLBACK?MAIN
            CODE    27B9H     001DH     UNIT         ?PR?HALLINIT?HALL
            CODE    27D6H     001DH     UNIT         ?PR?KEYINIT?KEY
            CODE    27F3H     001DH     UNIT         ?PR?VIBINIT?VIB
            CODE    2810H     001BH     UNIT         ?PR?MYKEY_CALLBACK?MAIN
            CODE    282BH     001BH     UNIT         ?PR?DISPLAYERINIT?DISPLAYER
            CODE    2846H     0019H     UNIT         ?PR?_DS1302WRITEBYTE?DS1302
            CODE    285FH     0019H     UNIT         ?PR?DS1302READBYTE?DS1302
            CODE    2878H     0019H     UNIT         ?PR?RTC_WRITE?DS1302
            CODE    2891H     0012H     UNIT         ?PR?_NVM_READ?DS1302
            CODE    28A3H     0011H     UNIT         ?PR?_SETCCP0?SYS
            CODE    28B4H     000FH     UNIT         ?PR?_?SYS_GET_HALLEVENT?HALL
            CODE    28C3H     000FH     UNIT         ?PR?_?SYS_GET_KEYEVENT?KEY
            CODE    28D2H     000FH     UNIT         ?PR?_?SYS_GET_SVEVENT?VIB
            CODE    28E1H     000FH     UNIT         ?PR?_?GETVIBACT?VIB
            CODE    28F0H     000FH     UNIT         ?PR?MUSICPLAYERINIT?MUSIC
            CODE    28FFH     000FH     UNIT         ?PR?_?SYS_GET_UART2RXDEVENT?UART2
            CODE    290EH     000EH     UNIT         ?PR?_?SYS_SV_DRV?VIB
            CODE    291CH     000CH     UNIT         ?PR?GETBEEPSTATUS?BEEP
            CODE    2928H     000BH     UNIT         ?PR?GETUART2TXSTATUS?UART2
            CODE    2933H     0009H     UNIT         ?PR?_SETDISPLAYERAREA?DISPLAYER
            CODE    293CH     0009H     UNIT         ?PR?GETBEEPTIMER?SYS
            CODE    2945H     0009H     UNIT         ?PR?_SETBEEPTIMER?SYS
            CODE    294EH     0007H     UNIT         ?PR?GETSYSPERFORMANCE?SYS
            CODE    2955H     0007H     UNIT         ?PR?RTC_READ?DS1302
            CODE    295CH     0006H     UNIT         ?PR?_LEDPRINT?DISPLAYER
            CODE    2962H     0006H     UNIT         ?PR?GETHALLACT?HALL
            CODE    2968H     0006H     UNIT         ?PR?MYSTC_INIT?SYS
            CODE    296EH     0006H     UNIT         ?PR?GETPLAYERMODE?MUSIC
            CODE    2974H     0003H     UNIT         ?PR?MY10MS_CALLBACK?MAIN
            CODE    2977H     0003H     UNIT         ?PR?_?RET0FUNC?SYS
            CODE    297AH     0003H     UNIT         ?PR?CLRBEEPPIN?SYS
            CODE    297DH     0001H     UNIT         ?PR?_?NULLFUNC?SYS
            CODE    297EH     0001H     UNIT         ?PR?_?NULLFUNC0?UART2



OVERLAY MAP OF MODULE:   test (MAIN)


SEGMENT                                     DATA_GROUP 
  +--> CALLED SEGMENT                     START    LENGTH
---------------------------------------------------------
?C_C51STARTUP                             -----    -----
  +--> ?PR?MAIN?MAIN
  +--> ?C_INITSEG
BL51 BANKED LINKER/LOCATER V6.22                                                      09/18/2025  15:56:16  PAGE 4



?PR?MAIN?MAIN                             -----    -----
  +--> ?PR?_UART2INIT?UART2
  +--> ?PR?DISPLAYERINIT?DISPLAYER
  +--> ?PR?KEYINIT?KEY
  +--> ?PR?VIBINIT?VIB
  +--> ?PR?MUSICPLAYERINIT?MUSIC
  +--> ?PR?BEEPINIT?BEEP
  +--> ?PR?HALLINIT?HALL
  +--> ?PR?_SETDISPLAYERAREA?DISPLAYER
  +--> ?PR?DS1302INIT?DS1302
  +--> ?PR?RTC_WRITE?DS1302
  +--> ?PR?_SETUART2RXD?UART2
  +--> ?CO?MAIN
  +--> ?PR?_SETMUSIC?MUSIC
  +--> ?PR?MYHALL_CALLBACK?MAIN
  +--> ?PR?_SETEVENTCALLBACK?SYS
  +--> ?PR?MYVIB_CALLBACK?MAIN
  +--> ?PR?MYKEY_CALLBACK?MAIN
  +--> ?PR?MYUART2_CALLBACK?MAIN
  +--> ?PR?MYDISPLAY_CALLBACK?MAIN
  +--> ?PR?MYLED_CALLBACK?MAIN
  +--> ?PR?MY10MS_CALLBACK?MAIN
  +--> ?PR?MYSTC_INIT?SYS
  +--> ?PR?MYSTC_OS?SYS

?PR?_UART2INIT?UART2                      0008H    0005H
  +--> ?PR?_?NULLFUNC0?UART2
  +--> ?CO?MAIN
  +--> ?PR?_?SYS_GET_UART2RXDEVENT?UART2

?PR?DISPLAYERINIT?DISPLAYER               -----    -----
  +--> ?PR?_?SYS_DISPLAY_DRV?DISPLAYER

?PR?_?SYS_DISPLAY_DRV?DISPLAYER           -----    -----
  +--> ?CO?MAIN

?PR?KEYINIT?KEY                           -----    -----
  +--> ?PR?_?SYS_GET_KEYEVENT?KEY
  +--> ?PR?_?SYS_KEY_DRV?KEY

?PR?VIBINIT?VIB                           -----    -----
  +--> ?PR?_?SYS_GET_SVEVENT?VIB
  +--> ?PR?_?SYS_SV_DRV?VIB

?PR?MUSICPLAYERINIT?MUSIC                 -----    -----
  +--> ?PR?_?SYS_MUSIC_DRV?MUSIC

?PR?_?SYS_MUSIC_DRV?MUSIC                 -----    -----
  +--> ?PR?GETBEEPSTATUS?BEEP
  +--> ?PR?_SEG7PRINT?DISPLAYER
  +--> ?PR?_LEDPRINT?DISPLAYER
  +--> ?PR?_PLAYTONE?MUSIC

?PR?GETBEEPSTATUS?BEEP                    -----    -----
  +--> ?PR?GETBEEPTIMER?SYS

BL51 BANKED LINKER/LOCATER V6.22                                                      09/18/2025  15:56:16  PAGE 5


?PR?_SEG7PRINT?DISPLAYER                  0012H    0008H

?PR?_PLAYTONE?MUSIC                       0008H    0006H
  +--> ?PR?GETBEEPSTATUS?BEEP
  +--> ?CO?MUSIC
  +--> ?PR?_SETBEEP?BEEP

?PR?_SETBEEP?BEEP                         000EH    0004H
  +--> ?PR?GETBEEPTIMER?SYS
  +--> ?PR?_SETBEEPTIMER?SYS
  +--> ?CO?MAIN
  +--> ?PR?_SETCCP0?SYS
  +--> ?PR?CLRBEEPPIN?SYS

?PR?BEEPINIT?BEEP                         -----    -----
  +--> ?PR?CLRBEEPPIN?SYS
  +--> ?PR?_?SYS_BEEP_DRV?BEEP

?PR?_?SYS_BEEP_DRV?BEEP                   -----    -----
  +--> ?PR?GETBEEPTIMER?SYS
  +--> ?PR?_SETBEEPTIMER?SYS

?PR?HALLINIT?HALL                         -----    -----
  +--> ?PR?_?SYS_GET_HALLEVENT?HALL
  +--> ?PR?_?SYS_HALL_DRV?HALL

?PR?DS1302INIT?DS1302                     0008H    0007H
  +--> ?PR?_DS1302READ?DS1302
  +--> ?PR?_DS1302WRITE?DS1302
  +--> ?PR?_NVM_READ?DS1302
  +--> ?PR?RTC_WRITE?DS1302
  +--> ?PR?_NVM_WRITE?DS1302
  +--> ?PR?_?SYS_DS1302_DRV?DS1302

?PR?_DS1302READ?DS1302                    -----    -----
  +--> ?PR?_DS1302WRITEBYTE?DS1302
  +--> ?PR?DS1302READBYTE?DS1302

?PR?_DS1302WRITE?DS1302                   -----    -----
  +--> ?PR?_DS1302WRITEBYTE?DS1302

?PR?_NVM_READ?DS1302                      -----    -----
  +--> ?PR?_DS1302READ?DS1302

?PR?RTC_WRITE?DS1302                      000FH    0007H

?PR?_NVM_WRITE?DS1302                     -----    -----
  +--> ?PR?_DS1302WRITE?DS1302

?PR?_?SYS_DS1302_DRV?DS1302               -----    -----
  +--> ?PR?_DS1302READ?DS1302
  +--> ?PR?_DS1302WRITE?DS1302

?PR?_SETUART2RXD?UART2                    0008H    000AH

?PR?_SETMUSIC?MUSIC                       0008H    0008H

BL51 BANKED LINKER/LOCATER V6.22                                                      09/18/2025  15:56:16  PAGE 6


?PR?MYHALL_CALLBACK?MAIN                  0008H    0001H
  +--> ?PR?GETHALLACT?HALL
  +--> ?PR?_UART2PRINT?UART2

?PR?_SETEVENTCALLBACK?SYS                 0008H    0003H

?PR?MYVIB_CALLBACK?MAIN                   -----    -----
  +--> ?PR?_?GETVIBACT?VIB
  +--> ?PR?_UART2PRINT?UART2

?PR?MYKEY_CALLBACK?MAIN                   -----    -----
  +--> ?PR?_GETKEYACT?KEY
  +--> ?PR?_SETPLAYERMODE?MUSIC

?PR?MYUART2_CALLBACK?MAIN                 0008H    0002H

?PR?MYDISPLAY_CALLBACK?MAIN               0008H    000AH
  +--> ?PR?_SEG7PRINT?DISPLAYER
  +--> ?PR?RTC_READ?DS1302
  +--> ?PR?_UART2PRINT?UART2
  +--> ?PR?_LEDPRINT?DISPLAYER

?PR?MYLED_CALLBACK?MAIN                   -----    -----
  +--> ?PR?_LEDPRINT?DISPLAYER

?PR?MY10MS_CALLBACK?MAIN                  -----    -----
  +--> ?PR?BEEP_CHECK?MAIN

?PR?BEEP_CHECK?MAIN                       -----    -----
  +--> ?PR?GETBEEPSTATUS?BEEP
  +--> ?PR?_SETBEEP?BEEP

?PR?MYSTC_INIT?SYS                        -----    -----
  +--> ?PR?SYS_TIMER0_INIT?SYS

?PR?SYS_TIMER0_INIT?SYS                   -----    -----
  +--> ?CO?MAIN

?PR?MYSTC_OS?SYS                          -----    -----
  +--> ?PR?SYS_TASK_IR?SYS
  +--> ?PR?SYS_TASK_1MS?SYS
  +--> ?PR?SYS_TASK_10MS?SYS
  +--> ?PR?SYS_TASK_100MS?SYS
  +--> ?PR?SYS_TASK_1S?SYS

?C_INITSEG                                -----    -----
  +--> ?PR?_?NULLFUNC?SYS
  +--> ?PR?_?RET0FUNC?SYS



SYMBOL TABLE OF MODULE:  test (MAIN)

  VALUE           TYPE          NAME
  ----------------------------------

  -------         MODULE        MAIN
BL51 BANKED LINKER/LOCATER V6.22                                                      09/18/2025  15:56:16  PAGE 7


  C:0000H         SYMBOL        _ICE_DUMMY_
  C:2165H         PUBLIC        beep_check
  D:0080H         PUBLIC        P0
  D:0090H         PUBLIC        P1
  D:00A0H         PUBLIC        P2
  D:00B0H         PUBLIC        P3
  D:00C0H         PUBLIC        P4
  D:00C8H         PUBLIC        P5
  D:00E8H         PUBLIC        P6
  D:00F8H         PUBLIC        P7
  D:00A8H         PUBLIC        IE
  D:0022H         PUBLIC        interp
  D:00B8H         PUBLIC        IP
  D:0024H         PUBLIC        currentTime
  C:279CH         PUBLIC        myVib_callback
  C:2974H         PUBLIC        my10mS_callback
  D:00D8H         PUBLIC        CCON
  C:2810H         PUBLIC        myKey_callback
  C:13C9H         PUBLIC        pokemon_get_DAZE
  C:1A5AH         PUBLIC        main
  D:002BH         PUBLIC        count
  C:1397H         PUBLIC        SysClock
  D:002DH         PUBLIC        led_flow_reverse
  D:0098H         PUBLIC        SCON
  D:0088H         PUBLIC        TCON
  D:002FH         PUBLIC        uart_data
  D:0039H         PUBLIC        LEDchange
  D:003BH         PUBLIC        initTime
  D:0042H         PUBLIC        data_recieved
  C:25D4H         PUBLIC        myUart2_callback
  C:1BEDH         PUBLIC        myLED_callback
  C:139BH         PUBLIC        decode_table
  C:0E4CH         PUBLIC        myDisplay_callback
  D:0047H         PUBLIC        matched_data
  D:0049H         PUBLIC        led_val
  D:004AH         PUBLIC        a
  D:00D0H         PUBLIC        PSW
  C:24D5H         PUBLIC        myHall_callback
  D:004CH         PUBLIC        LEDmode
  -------         PROC          MYUART2_CALLBACK
  -------         DO            
  D:0007H         SYMBOL        flag
  D:0008H         SYMBOL        menu_select
  D:0009H         SYMBOL        function
  -------         ENDDO         
  C:25D4H         LINE#         129
  C:25D4H         LINE#         130
  C:25D4H         LINE#         131
  C:25D6H         LINE#         132
  C:25D9H         LINE#         133
  C:25DCH         LINE#         135
  C:25E4H         LINE#         136
  C:25ECH         LINE#         137
  C:25EFH         LINE#         138
  C:25F6H         LINE#         139
  C:25F9H         LINE#         140
  C:25F9H         LINE#         141
BL51 BANKED LINKER/LOCATER V6.22                                                      09/18/2025  15:56:16  PAGE 8


  C:25FFH         LINE#         142
  C:25FFH         LINE#         144
  C:2602H         LINE#         145
  C:2602H         LINE#         146
  C:2607H         LINE#         147
  C:2607H         LINE#         148
  -------         ENDPROC       MYUART2_CALLBACK
  -------         PROC          MYDISPLAY_CALLBACK
  -------         DO            
  D:0008H         SYMBOL        flag
  D:0009H         SYMBOL        menu_select
  -------         DO            
  D:000AH         SYMBOL        dispData
  -------         ENDDO         
  -------         ENDDO         
  C:0E4CH         LINE#         149
  C:0E4CH         LINE#         150
  C:0E4CH         LINE#         151
  C:0E4FH         LINE#         152
  C:0E52H         LINE#         153
  C:0E56H         LINE#         154
  C:0E56H         LINE#         155
  C:0E5AH         LINE#         156
  C:0E5CH         LINE#         157
  C:0E61H         LINE#         158
  C:0E76H         LINE#         159
  C:0E7BH         LINE#         160
  C:0E90H         LINE#         161
  C:0E95H         LINE#         162
  C:0EADH         LINE#         163
  C:0EB6H         LINE#         164
  C:0ECBH         LINE#         165
  C:0ECEH         LINE#         166
  C:0ED3H         LINE#         167
  C:0EEBH         LINE#         168
  C:0EF0H         LINE#         169
  C:0F08H         LINE#         170
  C:0F11H         LINE#         171
  C:0F11H         LINE#         172
  C:0F16H         LINE#         173
  C:0F2EH         LINE#         174
  C:0F33H         LINE#         175
  C:0F4AH         LINE#         176
  C:0F4FH         LINE#         177
  C:0F66H         LINE#         178
  C:0F6BH         LINE#         179
  C:0F82H         LINE#         180
  C:0F87H         LINE#         181
  C:0F9EH         LINE#         182
  C:0FA7H         LINE#         183
  C:0FBFH         LINE#         184
  C:0FBFH         LINE#         185
  C:0FC5H         LINE#         186
  C:0FC5H         LINE#         190
  C:0FD5H         LINE#         193
  C:0FDCH         LINE#         194
  C:0FE2H         LINE#         195
BL51 BANKED LINKER/LOCATER V6.22                                                      09/18/2025  15:56:16  PAGE 9


  C:0FE5H         LINE#         196
  C:0FECH         LINE#         197
  C:0FF2H         LINE#         198
  C:0FF5H         LINE#         199
  C:0FFCH         LINE#         200
  C:1002H         LINE#         202
  C:1005H         LINE#         203
  C:1008H         LINE#         204
  C:100BH         LINE#         205
  C:100EH         LINE#         206
  C:1011H         LINE#         207
  C:1013H         LINE#         208
  C:1016H         LINE#         209
  C:1023H         LINE#         211
  C:103BH         LINE#         213
  C:1040H         LINE#         214
  C:1040H         LINE#         215
  -------         ENDPROC       MYDISPLAY_CALLBACK
  -------         PROC          MYKEY_CALLBACK
  C:2810H         LINE#         216
  C:2810H         LINE#         217
  C:2810H         LINE#         218
  C:2818H         LINE#         219
  C:2818H         LINE#         220
  C:281DH         LINE#         221
  C:281DH         LINE#         222
  C:2825H         LINE#         223
  C:2825H         LINE#         224
  C:282AH         LINE#         225
  C:282AH         LINE#         226
  -------         ENDPROC       MYKEY_CALLBACK
  -------         PROC          BEEP_CHECK
  C:2165H         LINE#         227
  C:2165H         LINE#         228
  C:2165H         LINE#         229
  C:2171H         LINE#         230
  C:2171H         LINE#         231
  C:2179H         LINE#         232
  C:2179H         LINE#         234
  C:2186H         LINE#         235
  C:2186H         LINE#         236
  C:218BH         LINE#         237
  C:218BH         LINE#         239
  C:2199H         LINE#         240
  C:2199H         LINE#         241
  C:219EH         LINE#         242
  C:21A0H         LINE#         243
  C:21AEH         LINE#         244
  C:21AEH         LINE#         245
  C:21B3H         LINE#         246
  C:21B5H         LINE#         247
  C:21C3H         LINE#         248
  C:21C3H         LINE#         249
  C:21CDH         LINE#         250
  C:21CDH         LINE#         251
  C:21DBH         LINE#         252
  C:21DBH         LINE#         253
BL51 BANKED LINKER/LOCATER V6.22                                                      09/18/2025  15:56:16  PAGE 10


  C:21E5H         LINE#         254
  C:21EBH         LINE#         255
  C:21EBH         LINE#         256
  -------         ENDPROC       BEEP_CHECK
  -------         PROC          MYLED_CALLBACK
  C:1BEDH         LINE#         257
  C:1BEDH         LINE#         258
  C:1BEDH         LINE#         260
  C:1BFDH         LINE#         261
  C:1BFDH         LINE#         262
  C:1BFFH         LINE#         263
  C:1C01H         LINE#         264
  C:1C13H         LINE#         265
  C:1C13H         LINE#         266
  C:1C15H         LINE#         267
  C:1C17H         LINE#         268
  C:1C1FH         LINE#         269
  C:1C1FH         LINE#         270
  C:1C21H         LINE#         271
  C:1C23H         LINE#         272
  C:1C33H         LINE#         273
  C:1C33H         LINE#         274
  C:1C35H         LINE#         275
  C:1C37H         LINE#         276
  C:1C49H         LINE#         277
  C:1C49H         LINE#         278
  C:1C4EH         LINE#         279
  C:1C4EH         LINE#         280
  C:1C5DH         LINE#         283
  C:1C6CH         LINE#         284
  C:1C6CH         LINE#         285
  C:1C72H         LINE#         286
  C:1C73H         LINE#         287
  C:1C84H         LINE#         288
  C:1C84H         LINE#         289
  C:1C8AH         LINE#         290
  C:1C8BH         LINE#         291
  C:1C96H         LINE#         292
  C:1C96H         LINE#         293
  C:1CA5H         LINE#         294
  C:1CA5H         LINE#         295
  -------         ENDPROC       MYLED_CALLBACK
  -------         PROC          MY10MS_CALLBACK
  C:2974H         LINE#         296
  C:2974H         LINE#         297
  C:2974H         LINE#         299
  -------         ENDPROC       MY10MS_CALLBACK
  -------         PROC          MYVIB_CALLBACK
  -------         DO            
  D:0007H         SYMBOL        k
  -------         ENDDO         
  C:279CH         LINE#         301
  C:279CH         LINE#         302
  C:279CH         LINE#         303
  C:279FH         LINE#         304
  C:27A2H         LINE#         305
  C:27A2H         LINE#         306
BL51 BANKED LINKER/LOCATER V6.22                                                      09/18/2025  15:56:16  PAGE 11


  C:27A5H         LINE#         307
  C:27A8H         LINE#         308
  C:27ABH         LINE#         309
  C:27B8H         LINE#         310
  C:27B8H         LINE#         311
  -------         ENDPROC       MYVIB_CALLBACK
  -------         PROC          MYHALL_CALLBACK
  -------         DO            
  D:0008H         SYMBOL        k
  -------         ENDDO         
  C:24D5H         LINE#         312
  C:24D5H         LINE#         313
  C:24D5H         LINE#         314
  C:24DAH         LINE#         315
  C:24DFH         LINE#         316
  C:24DFH         LINE#         317
  C:24E2H         LINE#         318
  C:24E5H         LINE#         319
  C:24E8H         LINE#         320
  C:24F5H         LINE#         322
  C:24FAH         LINE#         323
  C:24FBH         LINE#         324
  C:2500H         LINE#         325
  C:2500H         LINE#         326
  C:2503H         LINE#         327
  C:2506H         LINE#         328
  C:2509H         LINE#         329
  C:2516H         LINE#         330
  C:2516H         LINE#         331
  -------         ENDPROC       MYHALL_CALLBACK
  -------         PROC          MAIN
  C:1A5AH         LINE#         333
  C:1A5AH         LINE#         334
  C:1A5AH         LINE#         335
  C:1A66H         LINE#         336
  C:1A69H         LINE#         337
  C:1A6CH         LINE#         338
  C:1A6FH         LINE#         339
  C:1A72H         LINE#         340
  C:1A75H         LINE#         341
  C:1A78H         LINE#         342
  C:1A7FH         LINE#         343
  C:1A95H         LINE#         344
  C:1AABH         LINE#         346
  C:1AC7H         LINE#         348
  C:1ADDH         LINE#         350
  C:1AE8H         LINE#         351
  C:1AF3H         LINE#         352
  C:1AFEH         LINE#         353
  C:1B09H         LINE#         354
  C:1B14H         LINE#         355
  C:1B1FH         LINE#         356
  C:1B2AH         LINE#         358
  C:1B2DH         LINE#         359
  C:1B2DH         LINE#         360
  C:1B2DH         LINE#         361
  C:1B30H         LINE#         362
BL51 BANKED LINKER/LOCATER V6.22                                                      09/18/2025  15:56:16  PAGE 12


  -------         ENDPROC       MAIN
  -------         ENDMOD        MAIN

  -------         MODULE        BEEP
  C:0000H         SYMBOL        _ICE_DUMMY_
  D:0080H         PUBLIC        P0
  D:00B2H         PUBLIC        P3M0
  D:0090H         PUBLIC        P1
  D:00B1H         PUBLIC        P3M1
  D:00A0H         PUBLIC        P2
  D:00B0H         PUBLIC        P3
  D:00C0H         PUBLIC        P4
  D:00C8H         PUBLIC        P5
  D:00E8H         PUBLIC        P6
  D:00F8H         PUBLIC        P7
  D:00F9H         PUBLIC        CH
  C:26ECH         PUBLIC        _?sys_beep_drv
  D:00A8H         PUBLIC        IE
  D:00E9H         PUBLIC        CL
  C:273CH         PUBLIC        BeepInit
  B:00D8H.6       PUBLIC        CR
  D:00DAH         PUBLIC        CCAPM0
  D:00B8H         PUBLIC        IP
  D:00D9H         PUBLIC        CMOD
  D:00D8H         PUBLIC        CCON
  C:291CH         PUBLIC        GetBeepStatus
  C:22EAH         PUBLIC        _SetBeep
  D:0098H         PUBLIC        SCON
  D:0088H         PUBLIC        TCON
  D:00D0H         PUBLIC        PSW
  B:00D8H.0       PUBLIC        CCF0
  -------         PROC          _?SYS_BEEP_DRV
  -------         DO            
  i:0000H         SYMBOL        a
  -------         ENDDO         
  C:26ECH         LINE#         11
  C:26F0H         LINE#         13
  C:26FAH         LINE#         14
  C:270FH         LINE#         15
  -------         ENDPROC       _?SYS_BEEP_DRV
  -------         PROC          BEEPINIT
  C:273CH         LINE#         17
  C:273CH         LINE#         18
  C:273CH         LINE#         19
  C:273FH         LINE#         20
  C:2742H         LINE#         21
  C:2745H         LINE#         22
  C:2748H         LINE#         23
  C:274BH         LINE#         24
  C:274DH         LINE#         25
  C:275BH         LINE#         26
  -------         ENDPROC       BEEPINIT
  -------         PROC          _SETBEEP
  D:000EH         SYMBOL        Beep_freq
  D:0010H         SYMBOL        Beep_time
  -------         DO            
  D:0002H         SYMBOL        a
BL51 BANKED LINKER/LOCATER V6.22                                                      09/18/2025  15:56:16  PAGE 13


  D:0004H         SYMBOL        b
  -------         ENDDO         
  C:22EAH         LINE#         28
  C:22F2H         LINE#         29
  C:22F2H         LINE#         31
  C:22F9H         LINE#         32
  C:2300H         LINE#         33
  C:230BH         LINE#         34
  C:2334H         LINE#         35
  C:2348H         LINE#         36
  C:234FH         LINE#         37
  C:2351H         LINE#         38
  C:2354H         LINE#         39
  C:2356H         LINE#         41
  C:2359H         LINE#         42
  C:235CH         LINE#         43
  C:235CH         LINE#         44
  C:235FH         LINE#         45
  C:235FH         LINE#         46
  C:2361H         LINE#         47
  -------         ENDPROC       _SETBEEP
  -------         PROC          GETBEEPSTATUS
  C:291CH         LINE#         49
  C:291CH         LINE#         50
  C:2925H         LINE#         51
  C:2927H         LINE#         52
  -------         ENDPROC       GETBEEPSTATUS
  -------         ENDMOD        BEEP

  -------         MODULE        DISPLAYER
  C:0000H         SYMBOL        _ICE_DUMMY_
  D:0093H         PUBLIC        P0M1
  D:0096H         PUBLIC        P2M0
  D:0080H         PUBLIC        P0
  D:0095H         PUBLIC        P2M1
  D:0090H         PUBLIC        P1
  D:00A0H         PUBLIC        P2
  D:00B0H         PUBLIC        P3
  D:00C0H         PUBLIC        P4
  D:00C8H         PUBLIC        P5
  D:00E8H         PUBLIC        P6
  D:00F8H         PUBLIC        P7
  C:1F30H         PUBLIC        _Seg7SetMode
  D:00A8H         PUBLIC        IE
  D:00B8H         PUBLIC        IP
  D:00D8H         PUBLIC        CCON
  C:295CH         PUBLIC        _LedPrint
  B:00A0H.0       PUBLIC        P20
  B:00A0H.1       PUBLIC        P21
  D:0098H         PUBLIC        SCON
  B:00A0H.2       PUBLIC        P22
  D:0088H         PUBLIC        TCON
  B:00A0H.3       PUBLIC        P23
  C:282BH         PUBLIC        DisplayerInit
  C:1FBFH         PUBLIC        _LedSetMode
  X:0071H         PUBLIC        sys_Disp
  C:2933H         PUBLIC        _SetDisplayerArea
BL51 BANKED LINKER/LOCATER V6.22                                                      09/18/2025  15:56:16  PAGE 14


  C:275CH         PUBLIC        _Seg7Print
  C:121CH         PUBLIC        _?sys_display_drv
  D:00D0H         PUBLIC        PSW
  D:0094H         PUBLIC        P0M0
  -------         PROC          _?SYS_DISPLAY_DRV
  -------         DO            
  X:006FH         SYMBOL        T1mS
  X:0070H         SYMBOL        T100mS
  i:0000H         SYMBOL        d
  i:0001H         SYMBOL        i
  -------         ENDDO         
  C:121CH         LINE#         18
  C:1220H         LINE#         21
  C:122DH         LINE#         22
  C:1230H         LINE#         23
  C:123DH         LINE#         24
  C:123DH         LINE#         25
  C:1240H         LINE#         26
  C:1269H         LINE#         27
  C:126FH         LINE#         28
  C:1275H         LINE#         29
  C:127BH         LINE#         30
  C:1281H         LINE#         31
  C:128BH         LINE#         32
  C:1295H         LINE#         33
  C:129FH         LINE#         34
  C:12A9H         LINE#         35
  C:12ABH         LINE#         36
  C:12ABH         LINE#         37
  C:12B3H         LINE#         38
  C:12D8H         LINE#         39
  C:12F8H         LINE#         40
  C:12F8H         LINE#         41
  C:12FAH         LINE#         43
  C:1303H         LINE#         44
  C:1316H         LINE#         45
  C:1325H         LINE#         46
  C:1325H         LINE#         47
  C:1341H         LINE#         48
  C:1356H         LINE#         49
  C:135CH         LINE#         50
  C:1361H         LINE#         51
  C:1363H         LINE#         52
  C:1366H         LINE#         53
  C:1366H         LINE#         55
  C:137DH         LINE#         56
  C:138AH         LINE#         58
  C:1392H         LINE#         59
  -------         ENDPROC       _?SYS_DISPLAY_DRV
  -------         PROC          DISPLAYERINIT
  C:282BH         LINE#         61
  C:282BH         LINE#         62
  C:282BH         LINE#         63
  C:282EH         LINE#         64
  C:2831H         LINE#         65
  C:2834H         LINE#         66
  C:2837H         LINE#         67
BL51 BANKED LINKER/LOCATER V6.22                                                      09/18/2025  15:56:16  PAGE 15


  C:2845H         LINE#         68
  -------         ENDPROC       DISPLAYERINIT
  -------         PROC          _SETDISPLAYERAREA
  D:0007H         SYMBOL        Begin_of_scan
  D:0005H         SYMBOL        Ending_of_Scan
  C:2933H         LINE#         70
  C:2933H         LINE#         71
  C:2938H         LINE#         72
  C:293BH         LINE#         73
  -------         ENDPROC       _SETDISPLAYERAREA
  -------         PROC          _SEG7PRINT
  D:0007H         SYMBOL        d0
  D:0005H         SYMBOL        d1
  D:0003H         SYMBOL        d2
  D:0015H         SYMBOL        d3
  D:0016H         SYMBOL        d4
  D:0017H         SYMBOL        d5
  D:0018H         SYMBOL        d6
  D:0019H         SYMBOL        d7
  C:275CH         LINE#         75
  C:275CH         LINE#         76
  C:2761H         LINE#         77
  C:2764H         LINE#         78
  C:2767H         LINE#         79
  C:276BH         LINE#         80
  C:276FH         LINE#         81
  C:2773H         LINE#         82
  C:2777H         LINE#         83
  C:277BH         LINE#         84
  -------         ENDPROC       _SEG7PRINT
  -------         PROC          _LEDPRINT
  D:0007H         SYMBOL        led_val
  C:295CH         LINE#         86
  C:295CH         LINE#         87
  C:2961H         LINE#         88
  -------         ENDPROC       _LEDPRINT
  -------         PROC          _SEG7SETMODE
  D:0007H         SYMBOL        m0
  D:0005H         SYMBOL        m1
  D:0003H         SYMBOL        m2
  D:0062H         SYMBOL        m3
  D:0063H         SYMBOL        m4
  D:0064H         SYMBOL        m5
  D:0065H         SYMBOL        m6
  D:0066H         SYMBOL        m7
  C:1F30H         LINE#         90
  C:1F30H         LINE#         91
  C:1F44H         LINE#         92
  C:1F54H         LINE#         93
  C:1F64H         LINE#         94
  C:1F76H         LINE#         95
  C:1F88H         LINE#         96
  C:1F9AH         LINE#         97
  C:1FACH         LINE#         98
  C:1FBEH         LINE#         99
  -------         ENDPROC       _SEG7SETMODE
  -------         PROC          _LEDSETMODE
BL51 BANKED LINKER/LOCATER V6.22                                                      09/18/2025  15:56:16  PAGE 16


  D:0007H         SYMBOL        m0
  D:0005H         SYMBOL        m1
  D:0003H         SYMBOL        m2
  D:006AH         SYMBOL        m3
  D:006BH         SYMBOL        m4
  D:006CH         SYMBOL        m5
  D:006DH         SYMBOL        m6
  D:006EH         SYMBOL        m7
  C:1FBFH         LINE#         101
  C:1FBFH         LINE#         102
  C:1FD3H         LINE#         103
  C:1FE3H         LINE#         104
  C:1FF3H         LINE#         105
  C:2005H         LINE#         106
  C:2017H         LINE#         107
  C:2029H         LINE#         108
  C:203BH         LINE#         109
  C:204DH         LINE#         110
  -------         ENDPROC       _LEDSETMODE
  -------         ENDMOD        DISPLAYER

  -------         MODULE        HALL
  C:0000H         SYMBOL        _ICE_DUMMY_
  D:0080H         PUBLIC        P0
  D:0090H         PUBLIC        P1
  D:00A0H         PUBLIC        P2
  D:00B0H         PUBLIC        P3
  D:00C0H         PUBLIC        P4
  D:00C8H         PUBLIC        P5
  D:00E8H         PUBLIC        P6
  D:00F8H         PUBLIC        P7
  D:001CH         PUBLIC        hall_Event
  C:28B4H         PUBLIC        _?sys_get_hallEvent
  D:00A8H         PUBLIC        IE
  C:2492H         PUBLIC        _?sys_hall_drv
  D:00B8H         PUBLIC        IP
  C:27B9H         PUBLIC        HallInit
  B:0090H.2       PUBLIC        IO_hall
  D:00D8H         PUBLIC        CCON
  D:0098H         PUBLIC        SCON
  D:0088H         PUBLIC        TCON
  C:2962H         PUBLIC        GetHallAct
  X:00CAH         PUBLIC        sys_hallEvent
  D:00D0H         PUBLIC        PSW
  -------         PROC          _?SYS_HALL_DRV
  -------         DO            
  X:00C7H         SYMBOL        counter
  X:00C8H         SYMBOL        hall_count
  X:00C9H         SYMBOL        hall_last_count
  -------         ENDDO         
  C:2492H         LINE#         14
  C:2492H         LINE#         19
  C:249BH         LINE#         20
  C:24A3H         LINE#         21
  C:24A6H         LINE#         22
  C:24AEH         LINE#         23
  C:24B4H         LINE#         24
BL51 BANKED LINKER/LOCATER V6.22                                                      09/18/2025  15:56:16  PAGE 17


  C:24B7H         LINE#         25
  C:24B7H         LINE#         26
  C:24B7H         LINE#         27
  C:24B9H         LINE#         29
  C:24C2H         LINE#         30
  C:24C5H         LINE#         31
  C:24C9H         LINE#         32
  C:24C9H         LINE#         33
  C:24C9H         LINE#         34
  C:24CEH         LINE#         35
  C:24D4H         LINE#         36
  C:24D4H         LINE#         37
  -------         ENDPROC       _?SYS_HALL_DRV
  -------         PROC          _?SYS_GET_HALLEVENT
  -------         DO            
  i:0000H         SYMBOL        a
  -------         ENDDO         
  C:28B4H         LINE#         39
  C:28B6H         LINE#         41
  C:28BEH         LINE#         42
  C:28C0H         LINE#         43
  C:28C0H         LINE#         44
  -------         ENDPROC       _?SYS_GET_HALLEVENT
  -------         PROC          HALLINIT
  C:27B9H         LINE#         46
  C:27B9H         LINE#         47
  C:27B9H         LINE#         48
  C:27C7H         LINE#         49
  C:27D5H         LINE#         50
  -------         ENDPROC       HALLINIT
  -------         PROC          GETHALLACT
  -------         DO            
  D:0007H         SYMBOL        a
  -------         ENDDO         
  C:2962H         LINE#         52
  C:2962H         LINE#         53
  C:2962H         LINE#         54
  C:2964H         LINE#         55
  C:2967H         LINE#         56
  C:2967H         LINE#         57
  -------         ENDPROC       GETHALLACT
  -------         ENDMOD        HALL

  -------         MODULE        KEY
  C:0000H         SYMBOL        _ICE_DUMMY_
  D:0080H         PUBLIC        P0
  D:0090H         PUBLIC        P1
  D:00A0H         PUBLIC        P2
  D:00B0H         PUBLIC        P3
  D:00C0H         PUBLIC        P4
  D:00C8H         PUBLIC        P5
  D:00E8H         PUBLIC        P6
  D:00F8H         PUBLIC        P7
  D:00A8H         PUBLIC        IE
  X:00B4H         PUBLIC        sys_keyEvent
  D:00B8H         PUBLIC        IP
  D:00D8H         PUBLIC        CCON
BL51 BANKED LINKER/LOCATER V6.22                                                      09/18/2025  15:56:16  PAGE 18


  C:28C3H         PUBLIC        _?sys_get_keyEvent
  D:0098H         PUBLIC        SCON
  D:0088H         PUBLIC        TCON
  C:161EH         PUBLIC        _?sys_key_drv
  C:27D6H         PUBLIC        KeyInit
  B:00B0H.2       PUBLIC        IO_Key1
  B:00B0H.3       PUBLIC        IO_Key2
  B:0090H.7       PUBLIC        IO_Key3
  C:2517H         PUBLIC        _GetKeyAct
  X:00B5H         PUBLIC        sys_Key
  D:00D0H         PUBLIC        PSW
  -------         PROC          _?SYS_KEY_DRV
  -------         DO            
  i:0000H         SYMBOL        i
  X:00B3H         SYMBOL        counter
  -------         ENDDO         
  C:161EH         LINE#         28
  C:1620H         LINE#         31
  C:1629H         LINE#         32
  C:1632H         LINE#         33
  C:163BH         LINE#         34
  C:1646H         LINE#         35
  C:1649H         LINE#         36
  C:165BH         LINE#         37
  C:1679H         LINE#         38
  C:1692H         LINE#         39
  C:16AEH         LINE#         40
  C:16B2H         LINE#         41
  C:16B2H         LINE#         42
  C:16B4H         LINE#         44
  C:16D5H         LINE#         45
  C:16EBH         LINE#         46
  C:16F0H         LINE#         47
  C:16F0H         LINE#         48
  C:16F0H         LINE#         49
  C:1723H         LINE#         50
  C:173EH         LINE#         51
  C:1742H         LINE#         52
  C:1742H         LINE#         53
  -------         ENDPROC       _?SYS_KEY_DRV
  -------         PROC          _?SYS_GET_KEYEVENT
  -------         DO            
  i:0000H         SYMBOL        a
  -------         ENDDO         
  C:28C3H         LINE#         55
  C:28C5H         LINE#         57
  C:28CDH         LINE#         58
  C:28CFH         LINE#         59
  C:28CFH         LINE#         60
  -------         ENDPROC       _?SYS_GET_KEYEVENT
  -------         PROC          KEYINIT
  C:27D6H         LINE#         62
  C:27D6H         LINE#         63
  C:27D6H         LINE#         66
  C:27E4H         LINE#         67
  C:27F2H         LINE#         68
  -------         ENDPROC       KEYINIT
BL51 BANKED LINKER/LOCATER V6.22                                                      09/18/2025  15:56:16  PAGE 19


  -------         PROC          _GETKEYACT
  D:0007H         SYMBOL        Key
  -------         DO            
  D:0006H         SYMBOL        a
  -------         ENDDO         
  C:2517H         LINE#         70
  C:2517H         LINE#         71
  C:2517H         LINE#         72
  C:2521H         LINE#         73
  C:253CH         LINE#         74
  C:2551H         LINE#         75
  C:2554H         LINE#         76
  C:2554H         LINE#         77
  C:2556H         LINE#         78
  -------         ENDPROC       _GETKEYACT
  -------         ENDMOD        KEY

  -------         MODULE        SYS
  C:0000H         SYMBOL        _ICE_DUMMY_
  X:0000H         PUBLIC        count_1mS
  B:00D8H.2       PUBLIC        CCF2
  D:0080H         PUBLIC        P0
  B:0020H.1       PUBLIC        flag_1S
  D:0090H         PUBLIC        P1
  D:00A0H         PUBLIC        P2
  D:00B0H         PUBLIC        P3
  D:00C0H         PUBLIC        P4
  X:0001H         PUBLIC        T1
  D:00C8H         PUBLIC        P5
  X:0003H         PUBLIC        T2
  B:00A8H.7       PUBLIC        EA
  D:00E8H         PUBLIC        P6
  D:00F8H         PUBLIC        P7
  D:004FH         PUBLIC        IrDatNum
  B:00D8H.7       PUBLIC        CF
  B:0020H.2       PUBLIC        Ir_Coder
  B:0020H.3       PUBLIC        Ir_RxBusy
  D:00A8H         PUBLIC        IE
  B:0020H.4       PUBLIC        Ir_TxBusy
  X:0005H         PUBLIC        userfunccall
  D:00FAH         PUBLIC        CCAP0H
  D:00FBH         PUBLIC        CCAP1H
  C:20DAH         PUBLIC        sys_task_Ir
  D:0050H         PUBLIC        IrCount_j
  D:0051H         PUBLIC        IrRx_count
  D:0052H         PUBLIC        IrProtocol
  D:00EAH         PUBLIC        CCAP0L
  D:0053H         PUBLIC        IrTx_count
  D:00EBH         PUBLIC        CCAP1L
  D:00DAH         PUBLIC        CCAPM0
  D:00DBH         PUBLIC        CCAPM1
  D:0054H         PUBLIC        MainLoops
  D:00B8H         PUBLIC        IP
  B:00D0H.7       PUBLIC        CY
  B:0020H.5       PUBLIC        flag_10mS
  D:00D8H         PUBLIC        CCON
  C:293CH         PUBLIC        GetBeepTimer
BL51 BANKED LINKER/LOCATER V6.22                                                      09/18/2025  15:56:16  PAGE 20


  C:23B5H         PUBLIC        sys_Timer0_isr
  C:226DH         PUBLIC        _SetEventCallBack
  C:2968H         PUBLIC        MySTC_Init
  C:2557H         PUBLIC        sys_task_100mS
  X:0029H         PUBLIC        ModBus_interval_time
  C:2977H         PUBLIC        _?ret0func
  C:2362H         PUBLIC        GetUltraSonic
  X:002AH         PUBLIC        count_10mS
  X:002BH         PUBLIC        stcDrivers
  C:2945H         PUBLIC        _SetBeepTimer
  B:0020H.6       PUBLIC        flag_IrRxFinished
  D:0098H         PUBLIC        SCON
  C:28A3H         PUBLIC        _SetCCP0
  C:2596H         PUBLIC        MySTC_OS
  D:0089H         PUBLIC        TMOD
  D:0088H         PUBLIC        TCON
  B:0020H.7       PUBLIC        flag_Ir
  B:00B0H.5       PUBLIC        P35
  D:0058H         PUBLIC        IrRxNum
  X:0061H         PUBLIC        SysPerformance
  D:008EH         PUBLIC        AUXR
  C:1D50H         PUBLIC        sys_CCP_isr
  C:1969H         PUBLIC        sys_task_1mS
  B:00A8H.1       PUBLIC        ET0
  C:297AH         PUBLIC        ClrBeepPin
  D:008CH         PUBLIC        TH0
  B:0021H.0       PUBLIC        flag_100mS
  X:0066H         PUBLIC        distance
  D:008AH         PUBLIC        TL0
  D:0059H         PUBLIC        PollingMisses
  X:0068H         PUBLIC        sys_BP
  B:0088H.4       PUBLIC        TR0
  C:2698H         PUBLIC        sys_task_1S
  C:294EH         PUBLIC        GetSysPerformance
  B:0021H.1       PUBLIC        matchModBus
  X:006EH         PUBLIC        count_100mS
  B:0021H.2       PUBLIC        Ir_BitBusy
  D:005AH         PUBLIC        IrDat_count
  D:005BH         PUBLIC        IrMute_count
  B:0021H.3       PUBLIC        newFrame1
  C:2407H         PUBLIC        sys_Timer0_Init
  B:0021H.4       PUBLIC        newFrame2
  D:005CH         PUBLIC        IrDataPc
  C:297DH         PUBLIC        _?nullfunc
  B:0021H.5       PUBLIC        flag_1mS
  B:0021H.6       PUBLIC        newUS
  D:008FH         PUBLIC        INT_CLKO
  C:1E9DH         PUBLIC        sys_task_10mS
  D:00D0H         PUBLIC        PSW
  B:00D8H.0       PUBLIC        CCF0
  B:00B0H.4       PUBLIC        Beep
  B:00D8H.1       PUBLIC        CCF1
  -------         PROC          _?NULLFUNC
  C:297DH         LINE#         13
  -------         ENDPROC       _?NULLFUNC
  -------         PROC          _?RET0FUNC
  C:2977H         LINE#         14
BL51 BANKED LINKER/LOCATER V6.22                                                      09/18/2025  15:56:16  PAGE 21


  -------         ENDPROC       _?RET0FUNC
  -------         PROC          SYS_TIMER0_INIT
  C:2407H         LINE#         96
  C:2407H         LINE#         97
  C:240AH         LINE#         98
  C:240DH         LINE#         99
  C:2423H         LINE#         100
  C:2449H         LINE#         101
  C:244BH         LINE#         102
  C:244DH         LINE#         103
  -------         ENDPROC       SYS_TIMER0_INIT
  -------         PROC          SYS_TIMER0_ISR
  -------         DO            
  D:004EH         SYMBOL        i
  -------         ENDDO         
  C:23B5H         LINE#         105
  C:23B9H         LINE#         107
  C:23BCH         LINE#         108
  C:23BFH         LINE#         109
  C:23C4H         LINE#         110
  C:23C6H         LINE#         111
  C:23C6H         LINE#         112
  C:23CCH         LINE#         113
  C:23D2H         LINE#         114
  C:23D5H         LINE#         115
  C:23D7H         LINE#         116
  C:23DAH         LINE#         117
  C:23DEH         LINE#         118
  C:23E0H         LINE#         119
  C:23E3H         LINE#         120
  C:23E5H         LINE#         122
  C:23E8H         LINE#         123
  C:23EAH         LINE#         124
  C:23EFH         LINE#         125
  C:23EFH         LINE#         126
  C:23F1H         LINE#         128
  C:23FAH         LINE#         129
  C:23FCH         LINE#         130
  C:2402H         LINE#         131
  C:2402H         LINE#         132
  C:2402H         LINE#         133
  C:2402H         LINE#         134
  -------         ENDPROC       SYS_TIMER0_ISR
  -------         PROC          GETULTRASONIC
  -------         DO            
  D:001AH         SYMBOL        a
  -------         ENDDO         
  C:2362H         LINE#         138
  C:2362H         LINE#         139
  C:2362H         LINE#         140
  C:2365H         LINE#         141
  C:2367H         LINE#         142
  C:2376H         LINE#         143
  C:23ACH         LINE#         144
  C:23ACH         LINE#         145
  C:23B4H         LINE#         146
  -------         ENDPROC       GETULTRASONIC
BL51 BANKED LINKER/LOCATER V6.22                                                      09/18/2025  15:56:16  PAGE 22


  -------         PROC          GETBEEPTIMER
  C:293CH         LINE#         148
  C:293CH         LINE#         149
  C:2944H         LINE#         150
  -------         ENDPROC       GETBEEPTIMER
  -------         PROC          _SETBEEPTIMER
  D:0006H         SYMBOL        a
  C:2945H         LINE#         152
  C:2945H         LINE#         153
  C:294DH         LINE#         154
  -------         ENDPROC       _SETBEEPTIMER
  -------         PROC          _SETCCP0
  D:0006H         SYMBOL        step
  D:0004H         SYMBOL        next
  C:28A3H         LINE#         156
  C:28A3H         LINE#         157
  C:28ABH         LINE#         158
  C:28B3H         LINE#         159
  -------         ENDPROC       _SETCCP0
  -------         PROC          CLRBEEPPIN
  C:297AH         LINE#         161
  C:297AH         LINE#         162
  C:297CH         LINE#         163
  -------         ENDPROC       CLRBEEPPIN
  -------         PROC          SYS_CCP_ISR
  -------         DO            
  B:0020H.0       SYMBOL        a
  -------         ENDDO         
  C:1D50H         LINE#         165
  C:1D63H         LINE#         167
  C:1D6AH         LINE#         168
  C:1D71H         LINE#         169
  C:1D74H         LINE#         170
  C:1D76H         LINE#         171
  C:1D86H         LINE#         172
  C:1D8DH         LINE#         173
  C:1D90H         LINE#         174
  C:1D92H         LINE#         175
  C:1D94H         LINE#         177
  C:1DA8H         LINE#         178
  C:1DABH         LINE#         179
  C:1DADH         LINE#         180
  C:1DAFH         LINE#         181
  C:1DB1H         LINE#         183
  C:1DB1H         LINE#         184
  C:1DB4H         LINE#         185
  C:1DB6H         LINE#         186
  C:1DC0H         LINE#         187
  C:1DC2H         LINE#         188
  C:1DCBH         LINE#         189
  C:1DCEH         LINE#         190
  C:1DE0H         LINE#         191
  C:1DE2H         LINE#         193
  C:1DE4H         LINE#         194
  C:1DE7H         LINE#         195
  C:1DE7H         LINE#         196
  C:1DE7H         LINE#         197
BL51 BANKED LINKER/LOCATER V6.22                                                      09/18/2025  15:56:16  PAGE 23


  -------         ENDPROC       SYS_CCP_ISR
  -------         PROC          MYSTC_INIT
  C:2968H         LINE#         199
  C:2968H         LINE#         200
  C:296BH         LINE#         201
  C:296DH         LINE#         202
  -------         ENDPROC       MYSTC_INIT
  -------         PROC          SYS_TASK_IR
  -------         DO            
  D:0007H         SYMBOL        a
  -------         ENDDO         
  C:20DAH         LINE#         204
  C:20DAH         LINE#         205
  C:20DAH         LINE#         206
  C:20F0H         LINE#         207
  C:20F7H         LINE#         208
  C:20FAH         LINE#         209
  C:20FDH         LINE#         210
  C:2113H         LINE#         211
  C:2123H         LINE#         212
  C:212BH         LINE#         213
  C:212EH         LINE#         214
  C:2130H         LINE#         216
  C:2146H         LINE#         217
  C:215AH         LINE#         218
  C:215AH         LINE#         219
  C:215CH         LINE#         220
  C:215FH         LINE#         222
  C:215FH         LINE#         224
  C:2161H         LINE#         225
  C:2164H         LINE#         226
  C:2164H         LINE#         227
  -------         ENDPROC       SYS_TASK_IR
  -------         PROC          SYS_TASK_1MS
  C:1969H         LINE#         229
  C:1969H         LINE#         230
  C:1971H         LINE#         231
  C:1974H         LINE#         232
  C:1976H         LINE#         233
  C:197EH         LINE#         234
  C:1981H         LINE#         235
  C:1983H         LINE#         236
  C:198BH         LINE#         237
  C:198EH         LINE#         238
  C:1990H         LINE#         239
  C:1990H         LINE#         240
  C:1990H         LINE#         241
  C:1990H         LINE#         242
  C:199CH         LINE#         243
  C:19A8H         LINE#         244
  C:19B4H         LINE#         245
  C:19C0H         LINE#         246
  C:19CCH         LINE#         247
  C:19D8H         LINE#         248
  C:19F3H         LINE#         249
  C:1A02H         LINE#         250
  C:1A0EH         LINE#         251
BL51 BANKED LINKER/LOCATER V6.22                                                      09/18/2025  15:56:16  PAGE 24


  C:1A10H         LINE#         252
  C:1A10H         LINE#         253
  C:1A19H         LINE#         254
  C:1A1EH         LINE#         255
  C:1A2DH         LINE#         256
  C:1A2FH         LINE#         257
  C:1A2FH         LINE#         258
  C:1A31H         LINE#         260
  C:1A40H         LINE#         261
  C:1A4CH         LINE#         262
  C:1A4EH         LINE#         263
  C:1A4EH         LINE#         264
  C:1A4EH         LINE#         265
  -------         ENDPROC       SYS_TASK_1MS
  -------         PROC          SYS_TASK_10MS
  C:1E9DH         LINE#         268
  C:1E9DH         LINE#         269
  C:1EA9H         LINE#         270
  C:1EB5H         LINE#         271
  C:1EC1H         LINE#         272
  C:1ECDH         LINE#         273
  C:1EE8H         LINE#         274
  C:1F03H         LINE#         275
  C:1F1EH         LINE#         276
  C:1F21H         LINE#         277
  C:1F23H         LINE#         278
  C:1F2FH         LINE#         279
  C:1F2FH         LINE#         280
  -------         ENDPROC       SYS_TASK_10MS
  -------         PROC          SYS_TASK_100MS
  C:2557H         LINE#         282
  C:2557H         LINE#         283
  C:2563H         LINE#         284
  C:257EH         LINE#         285
  C:258AH         LINE#         286
  -------         ENDPROC       SYS_TASK_100MS
  -------         PROC          SYS_TASK_1S
  C:2698H         LINE#         289
  C:2698H         LINE#         290
  C:26A6H         LINE#         291
  C:26ACH         LINE#         292
  C:26B5H         LINE#         293
  C:26B7H         LINE#         294
  -------         ENDPROC       SYS_TASK_1S
  -------         PROC          MYSTC_OS
  C:2596H         LINE#         297
  C:2596H         LINE#         298
  C:259EH         LINE#         299
  C:25A6H         LINE#         300
  C:25AEH         LINE#         301
  C:25B6H         LINE#         302
  C:25BEH         LINE#         303
  C:25D3H         LINE#         306
  -------         ENDPROC       MYSTC_OS
  -------         PROC          _SETEVENTCALLBACK
  D:0007H         SYMBOL        event
  D:0008H         SYMBOL        user_callback
BL51 BANKED LINKER/LOCATER V6.22                                                      09/18/2025  15:56:16  PAGE 25


  C:226DH         LINE#         308
  C:2273H         LINE#         309
  C:22A4H         LINE#         310
  C:22A7H         LINE#         311
  C:22A9H         LINE#         312
  C:22ACH         LINE#         313
  C:22AEH         LINE#         314
  C:22B1H         LINE#         315
  C:22B3H         LINE#         316
  C:22B6H         LINE#         317
  C:22B8H         LINE#         318
  C:22BBH         LINE#         319
  C:22BDH         LINE#         320
  C:22C0H         LINE#         321
  C:22C2H         LINE#         322
  C:22C5H         LINE#         323
  C:22C7H         LINE#         324
  C:22CAH         LINE#         325
  C:22CCH         LINE#         326
  C:22CFH         LINE#         327
  C:22D1H         LINE#         328
  C:22D4H         LINE#         329
  C:22D6H         LINE#         330
  C:22D9H         LINE#         331
  C:22DBH         LINE#         332
  C:22E9H         LINE#         333
  C:22E9H         LINE#         334
  C:22E9H         LINE#         335
  C:22E9H         LINE#         336
  -------         ENDPROC       _SETEVENTCALLBACK
  -------         PROC          GETSYSPERFORMANCE
  C:294EH         LINE#         338
  C:294EH         LINE#         339
  C:2954H         LINE#         340
  -------         ENDPROC       GETSYSPERFORMANCE
  -------         ENDMOD        SYS

  -------         MODULE        VIB
  C:0000H         SYMBOL        _ICE_DUMMY_
  D:0080H         PUBLIC        P0
  D:0090H         PUBLIC        P1
  D:00A0H         PUBLIC        P2
  D:00B0H         PUBLIC        P3
  D:00C0H         PUBLIC        P4
  D:00C8H         PUBLIC        P5
  D:00E8H         PUBLIC        P6
  D:00F8H         PUBLIC        P7
  D:00A8H         PUBLIC        IE
  X:00CBH         PUBLIC        SV_Event
  C:28D2H         PUBLIC        _?sys_get_SVEvent
  C:290EH         PUBLIC        _?sys_SV_drv
  D:00B8H         PUBLIC        IP
  B:00A0H.4       PUBLIC        IO_SV
  D:00D8H         PUBLIC        CCON
  D:0098H         PUBLIC        SCON
  D:0088H         PUBLIC        TCON
  C:27F3H         PUBLIC        VibInit
BL51 BANKED LINKER/LOCATER V6.22                                                      09/18/2025  15:56:16  PAGE 26


  C:28E1H         PUBLIC        _?GetVibAct
  X:00CCH         PUBLIC        sys_SVEvent
  D:00D0H         PUBLIC        PSW
  -------         PROC          _?SYS_SV_DRV
  C:290EH         LINE#         14
  C:290EH         LINE#         15
  C:2911H         LINE#         16
  C:2917H         LINE#         17
  C:291BH         LINE#         18
  C:291BH         LINE#         19
  -------         ENDPROC       _?SYS_SV_DRV
  -------         PROC          _?SYS_GET_SVEVENT
  -------         DO            
  i:0000H         SYMBOL        a
  -------         ENDDO         
  C:28D2H         LINE#         21
  C:28D4H         LINE#         23
  C:28DCH         LINE#         24
  C:28DEH         LINE#         25
  C:28DEH         LINE#         26
  -------         ENDPROC       _?SYS_GET_SVEVENT
  -------         PROC          VIBINIT
  C:27F3H         LINE#         28
  C:27F3H         LINE#         29
  C:27F3H         LINE#         30
  C:2801H         LINE#         31
  C:280FH         LINE#         32
  -------         ENDPROC       VIBINIT
  -------         PROC          _?GETVIBACT
  -------         DO            
  i:0000H         SYMBOL        a
  -------         ENDDO         
  C:28E1H         LINE#         34
  C:28E3H         LINE#         36
  C:28EBH         LINE#         37
  C:28EDH         LINE#         38
  C:28EDH         LINE#         39
  -------         ENDPROC       _?GETVIBACT
  -------         ENDMOD        VIB

  -------         MODULE        MUSIC
  C:0000H         SYMBOL        _ICE_DUMMY_
  D:0080H         PUBLIC        P0
  D:0090H         PUBLIC        P1
  D:00A0H         PUBLIC        P2
  D:00B0H         PUBLIC        P3
  D:00C0H         PUBLIC        P4
  D:00C8H         PUBLIC        P5
  D:00E8H         PUBLIC        P6
  D:00F8H         PUBLIC        P7
  C:28F0H         PUBLIC        MusicPlayerInit
  D:00A8H         PUBLIC        IE
  C:0B4AH         PUBLIC        _?sys_music_drv
  D:00B8H         PUBLIC        IP
  C:296EH         PUBLIC        GetPlayerMode
  X:00A6H         PUBLIC        music
  D:00D8H         PUBLIC        CCON
BL51 BANKED LINKER/LOCATER V6.22                                                      09/18/2025  15:56:16  PAGE 27


  C:2714H         PUBLIC        _SetPlayerMode
  C:1CA6H         PUBLIC        _PlayTone
  C:21ECH         PUBLIC        _SetMusic
  D:0098H         PUBLIC        SCON
  D:0088H         PUBLIC        TCON
  B:0021H.7       PUBLIC        beat_dir
  D:00D0H         PUBLIC        PSW
  -------         PROC          _PLAYTONE
  D:0008H         SYMBOL        tone
  D:0009H         SYMBOL        beatsPM
  D:000AH         SYMBOL        scale
  D:000BH         SYMBOL        beats
  -------         DO            
  D:000CH         SYMBOL        freq
  D:0004H         SYMBOL        playtime
  C:1745H         SYMBOL        sound_freq
  -------         ENDDO         
  C:1CA6H         LINE#         22
  C:1CACH         LINE#         23
  C:1CACH         LINE#         34
  C:1CB5H         LINE#         35
  C:1CEAH         LINE#         36
  C:1CEDH         LINE#         37
  C:1D2EH         LINE#         38
  C:1D33H         LINE#         39
  C:1D48H         LINE#         40
  C:1D4FH         LINE#         41
  C:1D4FH         LINE#         42
  -------         ENDPROC       _PLAYTONE
  -------         PROC          _?SYS_MUSIC_DRV
  -------         DO            
  i:0000H         SYMBOL        a
  i:0001H         SYMBOL        b
  X:00A3H         SYMBOL        scale
  X:00A4H         SYMBOL        repeat_pt
  -------         ENDDO         
  C:0B4AH         LINE#         44
  C:0B4EH         LINE#         48
  C:0B6FH         LINE#         49
  C:0B73H         LINE#         50
  C:0B7AH         LINE#         51
  C:0B80H         LINE#         52
  C:0B84H         LINE#         53
  C:0B89H         LINE#         55
  C:0B89H         LINE#         57
  C:0BA5H         LINE#         58
  C:0BE3H         LINE#         59
  C:0C02H         LINE#         60
  C:0C14H         LINE#         61
  C:0C29H         LINE#         62
  C:0C40H         LINE#         63
  C:0C6CH         LINE#         64
  C:0C8FH         LINE#         65
  C:0C97H         LINE#         66
  C:0C99H         LINE#         67
  C:0CA0H         LINE#         68
  C:0CA0H         LINE#         70
BL51 BANKED LINKER/LOCATER V6.22                                                      09/18/2025  15:56:16  PAGE 28


  C:0CB8H         LINE#         71
  C:0CC1H         LINE#         72
  C:0CE3H         LINE#         73
  C:0D00H         LINE#         74
  C:0D21H         LINE#         75
  C:0D2FH         LINE#         76
  C:0D31H         LINE#         77
  C:0D52H         LINE#         78
  C:0D60H         LINE#         79
  C:0D63H         LINE#         80
  C:0D63H         LINE#         81
  C:0D63H         LINE#         82
  C:0D63H         LINE#         83
  C:0D84H         LINE#         84
  C:0D87H         LINE#         85
  C:0D9AH         LINE#         86
  C:0D9DH         LINE#         87
  C:0DBAH         LINE#         88
  C:0DC8H         LINE#         89
  C:0DCBH         LINE#         90
  C:0DD9H         LINE#         91
  C:0DDCH         LINE#         92
  C:0DDCH         LINE#         93
  C:0DDCH         LINE#         94
  C:0DF1H         LINE#         95
  C:0E12H         LINE#         96
  C:0E3FH         LINE#         97
  C:0E3FH         LINE#         98
  C:0E3FH         LINE#         99
  C:0E41H         LINE#         101
  C:0E47H         LINE#         103
  C:0E47H         LINE#         104
  -------         ENDPROC       _?SYS_MUSIC_DRV
  -------         PROC          MUSICPLAYERINIT
  C:28F0H         LINE#         106
  C:28F0H         LINE#         107
  C:28F0H         LINE#         108
  C:28FEH         LINE#         109
  -------         ENDPROC       MUSICPLAYERINIT
  -------         PROC          _SETMUSIC
  D:0007H         SYMBOL        beatsPM
  D:0005H         SYMBOL        tone
  D:000AH         SYMBOL        pt
  D:000DH         SYMBOL        datasize
  D:000FH         SYMBOL        display
  C:21ECH         LINE#         111
  C:21F2H         LINE#         112
  C:21F2H         LINE#         113
  C:2212H         LINE#         114
  C:2219H         LINE#         115
  C:221DH         LINE#         116
  C:221FH         LINE#         117
  C:221FH         LINE#         118
  C:2226H         LINE#         119
  C:222DH         LINE#         120
  C:2251H         LINE#         121
  C:225CH         LINE#         122
BL51 BANKED LINKER/LOCATER V6.22                                                      09/18/2025  15:56:16  PAGE 29


  C:2264H         LINE#         123
  C:2264H         LINE#         124
  C:226CH         LINE#         126
  -------         ENDPROC       _SETMUSIC
  -------         PROC          _SETPLAYERMODE
  D:0007H         SYMBOL        play_ctrl
  C:2714H         LINE#         128
  C:2714H         LINE#         129
  C:2736H         LINE#         130
  C:273BH         LINE#         131
  -------         ENDPROC       _SETPLAYERMODE
  -------         PROC          GETPLAYERMODE
  C:296EH         LINE#         133
  C:296EH         LINE#         134
  C:2973H         LINE#         135
  -------         ENDPROC       GETPLAYERMODE
  -------         ENDMOD        MUSIC

  -------         MODULE        DS1302
  C:0000H         SYMBOL        _ICE_DUMMY_
  D:0080H         PUBLIC        P0
  D:0090H         PUBLIC        P1
  D:00A0H         PUBLIC        P2
  D:00B0H         PUBLIC        P3
  D:00C0H         PUBLIC        P4
  C:2846H         PUBLIC        _DS1302WriteByte
  D:00C8H         PUBLIC        P5
  D:00E8H         PUBLIC        P6
  D:00F8H         PUBLIC        P7
  D:00A8H         PUBLIC        IE
  D:00B8H         PUBLIC        IP
  X:00BFH         PUBLIC        RTCtime
  B:00C8H.4       PUBLIC        RTC_io
  D:00D8H         PUBLIC        CCON
  B:0090H.6       PUBLIC        RTC_rst
  X:00C6H         PUBLIC        flag_newRTC
  D:0098H         PUBLIC        SCON
  D:0088H         PUBLIC        TCON
  C:2955H         PUBLIC        RTC_Read
  C:1DF8H         PUBLIC        _?sys_DS1302_drv
  C:2891H         PUBLIC        _NVM_Read
  C:2878H         PUBLIC        RTC_Write
  C:267DH         PUBLIC        _DS1302Read
  C:26C3H         PUBLIC        _NVM_Write
  C:277FH         PUBLIC        _DS1302Write
  C:285FH         PUBLIC        DS1302ReadByte
  C:186BH         PUBLIC        DS1302Init
  B:0090H.5       PUBLIC        RTC_sclk
  D:00D0H         PUBLIC        PSW
  -------         PROC          _DS1302WRITEBYTE
  D:0007H         SYMBOL        dat
  -------         DO            
  D:0006H         SYMBOL        i
  -------         ENDDO         
  C:2846H         LINE#         52
  C:2846H         LINE#         53
  C:2846H         LINE#         54
BL51 BANKED LINKER/LOCATER V6.22                                                      09/18/2025  15:56:16  PAGE 30


  C:2848H         LINE#         55
  C:284AH         LINE#         56
  C:284EH         LINE#         57
  C:284FH         LINE#         58
  C:2850H         LINE#         59
  C:2851H         LINE#         60
  C:2853H         LINE#         61
  C:2854H         LINE#         62
  C:2858H         LINE#         63
  C:285AH         LINE#         64
  C:285EH         LINE#         65
  -------         ENDPROC       _DS1302WRITEBYTE
  -------         PROC          DS1302READBYTE
  -------         DO            
  D:0006H         SYMBOL        i
  D:0007H         SYMBOL        dat
  -------         ENDDO         
  C:285FH         LINE#         67
  C:285FH         LINE#         68
  C:285FH         LINE#         69
  C:2861H         LINE#         70
  C:2862H         LINE#         71
  C:2866H         LINE#         72
  C:286CH         LINE#         73
  C:286EH         LINE#         74
  C:286FH         LINE#         75
  C:2870H         LINE#         76
  C:2871H         LINE#         77
  C:2873H         LINE#         78
  C:2877H         LINE#         79
  C:2877H         LINE#         80
  -------         ENDPROC       DS1302READBYTE
  -------         PROC          L?0042
  -------         ENDPROC       L?0042
  -------         PROC          _DS1302READ
  D:0007H         SYMBOL        cmd
  -------         DO            
  D:0007H         SYMBOL        dat
  -------         ENDDO         
  C:267DH         LINE#         82
  C:267DH         LINE#         83
  C:267DH         LINE#         85
  C:267FH         LINE#         86
  C:2680H         LINE#         87
  C:2681H         LINE#         88
  C:2682H         LINE#         89
  C:2684H         LINE#         90
  C:2685H         LINE#         91
  C:2686H         LINE#         92
  C:2687H         LINE#         93
  C:2689H         LINE#         94
  C:268AH         LINE#         95
  C:268DH         LINE#         96
  C:2690H         LINE#         97
  C:2692H         LINE#         98
  C:2693H         LINE#         99
  C:2694H         LINE#         100
BL51 BANKED LINKER/LOCATER V6.22                                                      09/18/2025  15:56:16  PAGE 31


  C:2695H         LINE#         101
  C:2697H         LINE#         102
  C:2697H         LINE#         103
  -------         ENDPROC       _DS1302READ
  -------         PROC          L?0043
  -------         ENDPROC       L?0043
  -------         PROC          _DS1302WRITE
  D:0007H         SYMBOL        cmd
  D:0005H         SYMBOL        dat
  C:277FH         LINE#         105
  C:277FH         LINE#         106
  C:2781H         LINE#         107
  C:2782H         LINE#         108
  C:2783H         LINE#         109
  C:2784H         LINE#         110
  C:2786H         LINE#         111
  C:2787H         LINE#         112
  C:2788H         LINE#         113
  C:2789H         LINE#         114
  C:278BH         LINE#         115
  C:278CH         LINE#         116
  C:278FH         LINE#         117
  C:2794H         LINE#         118
  C:2796H         LINE#         119
  C:2797H         LINE#         120
  C:2798H         LINE#         121
  C:2799H         LINE#         122
  C:279BH         LINE#         123
  -------         ENDPROC       _DS1302WRITE
  -------         PROC          RTC_READ
  C:2955H         LINE#         125
  C:2955H         LINE#         126
  C:295BH         LINE#         127
  -------         ENDPROC       RTC_READ
  -------         PROC          RTC_WRITE
  D:000FH         SYMBOL        t
  C:2878H         LINE#         129
  C:2878H         LINE#         130
  C:288BH         LINE#         131
  C:2890H         LINE#         132
  -------         ENDPROC       RTC_WRITE
  -------         PROC          _NVM_READ
  D:0007H         SYMBOL        NVM_addr
  C:2891H         LINE#         134
  C:2891H         LINE#         135
  C:28A0H         LINE#         136
  C:28A2H         LINE#         137
  -------         ENDPROC       _NVM_READ
  -------         PROC          _NVM_WRITE
  D:0004H         SYMBOL        NVM_addr
  D:0003H         SYMBOL        NVM_data
  C:26C3H         LINE#         139
  C:26C7H         LINE#         140
  C:26CDH         LINE#         141
  C:26D4H         LINE#         142
  C:26DFH         LINE#         143
  C:26E6H         LINE#         144
BL51 BANKED LINKER/LOCATER V6.22                                                      09/18/2025  15:56:16  PAGE 32


  C:26E9H         LINE#         145
  C:26E9H         LINE#         146
  C:26EBH         LINE#         147
  -------         ENDPROC       _NVM_WRITE
  -------         PROC          _?SYS_DS1302_DRV
  -------         DO            
  X:00BEH         SYMBOL        count100mS
  i:0000H         SYMBOL        a
  -------         ENDDO         
  C:1DF8H         LINE#         149
  C:1DFAH         LINE#         152
  C:1E00H         LINE#         153
  C:1E09H         LINE#         154
  C:1E13H         LINE#         155
  C:1E17H         LINE#         156
  C:1E20H         LINE#         157
  C:1E25H         LINE#         158
  C:1E28H         LINE#         159
  C:1E28H         LINE#         160
  C:1E28H         LINE#         161
  C:1E2EH         LINE#         162
  C:1E38H         LINE#         163
  C:1E42H         LINE#         164
  C:1E42H         LINE#         165
  C:1E42H         LINE#         166
  C:1E44H         LINE#         167
  C:1E51H         LINE#         168
  C:1E53H         LINE#         169
  C:1E58H         LINE#         170
  C:1E5FH         LINE#         171
  C:1E69H         LINE#         172
  C:1E6EH         LINE#         173
  C:1E73H         LINE#         174
  C:1E7BH         LINE#         175
  C:1E83H         LINE#         176
  C:1E8BH         LINE#         177
  C:1E93H         LINE#         178
  C:1E9AH         LINE#         179
  C:1E9AH         LINE#         180
  -------         ENDPROC       _?SYS_DS1302_DRV
  -------         PROC          DS1302INIT
  D:0008H         SYMBOL        t
  C:186BH         LINE#         182
  C:186BH         LINE#         183
  C:186BH         LINE#         184
  C:1875H         LINE#         185
  C:187CH         LINE#         186
  C:187CH         LINE#         187
  C:187CH         LINE#         188
  C:1882H         LINE#         189
  C:188AH         LINE#         190
  C:1892H         LINE#         192
  C:1899H         LINE#         194
  C:191CH         LINE#         202
  C:1932H         LINE#         203
  C:1939H         LINE#         204
  C:194CH         LINE#         205
BL51 BANKED LINKER/LOCATER V6.22                                                      09/18/2025  15:56:16  PAGE 33


  C:194CH         LINE#         206
  C:1953H         LINE#         207
  C:195AH         LINE#         208
  C:1968H         LINE#         209
  -------         ENDPROC       DS1302INIT
  -------         ENDMOD        DS1302

  -------         MODULE        UART2
  C:0000H         SYMBOL        _ICE_DUMMY_
  D:001DH         PUBLIC        ModBus_Interval_Min
  D:0080H         PUBLIC        P0
  C:1041H         PUBLIC        Uart2_isr
  D:0090H         PUBLIC        P1
  D:00A0H         PUBLIC        P2
  D:00B0H         PUBLIC        P3
  D:00C0H         PUBLIC        P4
  D:00C8H         PUBLIC        P5
  D:00E8H         PUBLIC        P6
  D:00F8H         PUBLIC        P7
  D:00BAH         PUBLIC        P_SW2
  D:00A8H         PUBLIC        IE
  D:00DBH         PUBLIC        CCAPM1
  D:00B8H         PUBLIC        IP
  C:297EH         PUBLIC        _?nullfunc0
  D:00D8H         PUBLIC        CCON
  C:2608H         PUBLIC        _SetUart2Rxd
  B:0090H.0       PUBLIC        P10
  B:0090H.1       PUBLIC        P11
  D:0098H         PUBLIC        SCON
  D:0088H         PUBLIC        TCON
  D:00AFH         PUBLIC        IE2
  D:008EH         PUBLIC        AUXR
  C:2928H         PUBLIC        GetUart2TxStatus
  D:00D6H         PUBLIC        T2H
  B:00B0H.7       PUBLIC        M485_TxEn
  D:00D7H         PUBLIC        T2L
  C:2639H         PUBLIC        _Uart2Print
  D:009BH         PUBLIC        S2BUF
  D:009AH         PUBLIC        S2CON
  C:1B32H         PUBLIC        _Uart2Init
  X:008DH         PUBLIC        Uart2usage
  C:28FFH         PUBLIC        _?sys_get_Uart2RxdEvent
  X:008EH         PUBLIC        com2
  D:00D0H         PUBLIC        PSW
  -------         PROC          UART2_ISR
  C:1041H         LINE#         19
  C:105EH         LINE#         20
  C:1063H         LINE#         21
  C:1066H         LINE#         22
  C:109AH         LINE#         24
  C:109FH         LINE#         25
  C:10A7H         LINE#         26
  C:10A7H         LINE#         27
  C:10A7H         LINE#         29
  C:10AFH         LINE#         30
  C:10B2H         LINE#         31
  C:10B5H         LINE#         32
BL51 BANKED LINKER/LOCATER V6.22                                                      09/18/2025  15:56:16  PAGE 34


  C:10B7H         LINE#         33
  C:10BEH         LINE#         34
  C:10C0H         LINE#         35
  C:10C0H         LINE#         36
  C:10CBH         LINE#         37
  C:10DFH         LINE#         38
  C:10F3H         LINE#         39
  C:1102H         LINE#         40
  C:1110H         LINE#         41
  C:1142H         LINE#         42
  C:1150H         LINE#         43
  C:1150H         LINE#         44
  C:1156H         LINE#         45
  C:1159H         LINE#         47
  C:116DH         LINE#         48
  C:1181H         LINE#         49
  C:1190H         LINE#         50
  C:119EH         LINE#         51
  C:11D6H         LINE#         52
  C:11E4H         LINE#         53
  C:11E4H         LINE#         55
  C:11F9H         LINE#         56
  C:11FFH         LINE#         57
  C:1201H         LINE#         58
  C:1201H         LINE#         59
  C:1201H         LINE#         60
  C:1201H         LINE#         61
  -------         ENDPROC       UART2_ISR
  -------         PROC          _?SYS_GET_UART2RXDEVENT
  -------         DO            
  i:0000H         SYMBOL        a
  -------         ENDDO         
  C:28FFH         LINE#         63
  C:2901H         LINE#         65
  C:2909H         LINE#         66
  C:290BH         LINE#         67
  C:290BH         LINE#         68
  -------         ENDPROC       _?SYS_GET_UART2RXDEVENT
  -------         PROC          _?NULLFUNC0
  C:297EH         LINE#         70
  -------         ENDPROC       _?NULLFUNC0
  -------         PROC          _UART2INIT
  D:0008H         SYMBOL        band
  D:000CH         SYMBOL        Uart2mode
  C:1B32H         LINE#         72
  C:1B3AH         LINE#         73
  C:1B3AH         LINE#         76
  C:1B40H         LINE#         77
  C:1B44H         LINE#         78
  C:1B47H         LINE#         79
  C:1B4DH         LINE#         80
  C:1B5BH         LINE#         81
  C:1B5EH         LINE#         82
  C:1B60H         LINE#         83
  C:1B62H         LINE#         84
  C:1B64H         LINE#         86
  C:1B66H         LINE#         87
BL51 BANKED LINKER/LOCATER V6.22                                                      09/18/2025  15:56:16  PAGE 35


  C:1B7AH         LINE#         88
  C:1B81H         LINE#         89
  C:1B87H         LINE#         90
  C:1B87H         LINE#         92
  C:1B8AH         LINE#         93
  C:1BA9H         LINE#         94
  C:1BD8H         LINE#         95
  C:1BDBH         LINE#         96
  C:1BDEH         LINE#         97
  C:1BECH         LINE#         98
  -------         ENDPROC       _UART2INIT
  -------         PROC          _SETUART2RXD
  D:0001H         SYMBOL        RxdPt
  D:0004H         SYMBOL        Nmax
  D:000DH         SYMBOL        matchhead
  D:0010H         SYMBOL        matchheadsize
  C:2608H         LINE#         100
  C:2608H         LINE#         101
  C:2613H         LINE#         102
  C:2619H         LINE#         103
  C:2623H         LINE#         104
  C:2631H         LINE#         105
  C:2633H         LINE#         106
  C:2638H         LINE#         107
  -------         ENDPROC       _SETUART2RXD
  -------         PROC          _UART2PRINT
  D:0001H         SYMBOL        pt
  D:0004H         SYMBOL        num
  C:2639H         LINE#         109
  C:2639H         LINE#         110
  C:263FH         LINE#         111
  C:263FH         LINE#         112
  C:2647H         LINE#         114
  C:2652H         LINE#         115
  C:2657H         LINE#         116
  C:265DH         LINE#         117
  C:2661H         LINE#         119
  C:2664H         LINE#         120
  C:2667H         LINE#         121
  C:2667H         LINE#         122
  C:2669H         LINE#         123
  -------         ENDPROC       _UART2PRINT
  -------         PROC          GETUART2TXSTATUS
  C:2928H         LINE#         125
  C:2928H         LINE#         126
  C:2930H         LINE#         127
  C:2932H         LINE#         128
  -------         ENDPROC       GETUART2TXSTATUS
  -------         ENDMOD        UART2

  -------         MODULE        ?C?COPY
  C:08D0H         PUBLIC        ?C?COPY
  -------         ENDMOD        ?C?COPY

  -------         MODULE        ?C?CLDOPTR
  C:08F6H         PUBLIC        ?C?CLDOPTR
  -------         ENDMOD        ?C?CLDOPTR
BL51 BANKED LINKER/LOCATER V6.22                                                      09/18/2025  15:56:16  PAGE 36



  -------         MODULE        ?C?CSTOPTR
  C:0923H         PUBLIC        ?C?CSTOPTR
  -------         ENDMOD        ?C?CSTOPTR

  -------         MODULE        ?C?IMUL
  C:0945H         PUBLIC        ?C?IMUL
  -------         ENDMOD        ?C?IMUL

  -------         MODULE        ?C?UIDIV
  C:0957H         PUBLIC        ?C?UIDIV
  -------         ENDMOD        ?C?UIDIV

  -------         MODULE        ?C?IILDX
  C:09ACH         PUBLIC        ?C?IILDX
  -------         ENDMOD        ?C?IILDX

  -------         MODULE        ?C?ILDIX
  C:09C2H         PUBLIC        ?C?ILDIX
  -------         ENDMOD        ?C?ILDIX

  -------         MODULE        ?C?LMUL
  C:09D8H         PUBLIC        ?C?LMUL
  -------         ENDMOD        ?C?LMUL

  -------         MODULE        ?C?ULDIV
  C:0A63H         PUBLIC        ?C?ULDIV
  -------         ENDMOD        ?C?ULDIV

  -------         MODULE        ?C?SLDIV
  C:244EH         PUBLIC        ?C?SLDIV
  -------         ENDMOD        ?C?SLDIV

  -------         MODULE        ?C?ULSHR
  C:0AF5H         PUBLIC        ?C?ULSHR
  -------         ENDMOD        ?C?ULSHR

  -------         MODULE        ?C?SLSHR
  C:0B08H         PUBLIC        ?C?SLSHR
  -------         ENDMOD        ?C?SLSHR

  -------         MODULE        ?C?LLDCODE
  C:0B1CH         PUBLIC        ?C?LLDCODE
  -------         ENDMOD        ?C?LLDCODE

  -------         MODULE        ?C?LSTXDATA
  C:0B2CH         PUBLIC        ?C?LSTXDATA
  -------         ENDMOD        ?C?LSTXDATA

  -------         MODULE        ?C?OFFXADD
  C:0B38H         PUBLIC        ?C?OFFXADD
  -------         ENDMOD        ?C?OFFXADD

  -------         MODULE        ?C?ICALL
  C:0B44H         PUBLIC        ?C?ICALL
  C:0B48H         PUBLIC        ?C?ICALL2
  -------         ENDMOD        ?C?ICALL
BL51 BANKED LINKER/LOCATER V6.22                                                      09/18/2025  15:56:16  PAGE 37



  -------         MODULE        ?C_IBP
  D:001EH         PUBLIC        ?C_IBP
  -------         ENDMOD        ?C_IBP

*** WARNING L16: UNCALLED SEGMENT, IGNORED FOR OVERLAY PROCESS
    SEGMENT: ?PR?_SEG7SETMODE?DISPLAYER

*** WARNING L16: UNCALLED SEGMENT, IGNORED FOR OVERLAY PROCESS
    SEGMENT: ?PR?_LEDSETMODE?DISPLAYER

*** WARNING L16: UNCALLED SEGMENT, IGNORED FOR OVERLAY PROCESS
    SEGMENT: ?PR?GETULTRASONIC?SYS

*** WARNING L16: UNCALLED SEGMENT, IGNORED FOR OVERLAY PROCESS
    SEGMENT: ?PR?GETSYSPERFORMANCE?SYS

*** WARNING L16: UNCALLED SEGMENT, IGNORED FOR OVERLAY PROCESS
    SEGMENT: ?PR?GETPLAYERMODE?MUSIC

*** WARNING L16: UNCALLED SEGMENT, IGNORED FOR OVERLAY PROCESS
    SEGMENT: ?PR?GETUART2TXSTATUS?UART2

******************************************************************************
* RESTRICTED VERSION WITH 0800H BYTE CODE SIZE LIMIT; USED: 0638H BYTE (77%) *
******************************************************************************

Program Size: data=111.0 xdata=205 code=8587
LINK/LOCATE RUN COMPLETE.  6 WARNING(S),  0 ERROR(S)
